

Microchip MPLAB XC8 Assembler V2.10 build 88905656 
                                                                                               Tue Oct 20 14:58:53 2020

Microchip MPLAB XC8 C Compiler v2.10 (Free license) build 20190730164152 Og1 
     1                           	processor	16F887
     2                           	opt	pw 120
     3                           	opt	flic
     4                           	psect	strings,global,class=STRING,delta=2
     5                           	psect	cinit,global,class=CODE,merge=1,delta=2
     6                           	psect	bssCOMMON,global,class=COMMON,space=1,delta=1
     7                           	psect	bssBANK0,global,class=BANK0,space=1,delta=1
     8                           	psect	bssBANK1,global,class=BANK1,space=1,delta=1
     9                           	psect	clrtext,global,class=CODE,delta=2
    10                           	psect	cstackBANK1,global,class=BANK1,space=1,delta=1
    11                           	psect	cstackCOMMON,global,class=COMMON,space=1,delta=1
    12                           	psect	cstackBANK0,global,class=BANK0,space=1,delta=1
    13                           	psect	maintext,global,class=CODE,split=1,delta=2
    14                           	psect	text1,local,class=CODE,merge=1,delta=2,group=1
    15                           	psect	text2,local,class=CODE,merge=1,delta=2,group=1
    16                           	psect	text3,local,class=CODE,merge=1,delta=2,group=1
    17                           	psect	text4,local,class=CODE,merge=1,delta=2,group=1
    18                           	psect	text5,local,class=CODE,merge=1,delta=2
    19                           	psect	text6,local,class=CODE,merge=1,delta=2
    20                           	psect	text7,local,class=CODE,merge=1,delta=2
    21                           	psect	text8,local,class=CODE,merge=1,delta=2,group=1
    22                           	psect	text9,local,class=CODE,merge=1,delta=2,group=1
    23                           	psect	text10,local,class=CODE,merge=1,delta=2
    24                           	psect	text11,local,class=CODE,merge=1,delta=2
    25                           	psect	text12,local,class=CODE,merge=1,delta=2
    26                           	psect	text13,local,class=CODE,merge=1,delta=2,group=2
    27                           	psect	text14,local,class=CODE,merge=1,delta=2,group=2
    28                           	psect	text15,local,class=CODE,merge=1,delta=2,group=1
    29                           	psect	text16,local,class=CODE,merge=1,delta=2,group=1
    30                           	psect	text17,local,class=CODE,merge=1,delta=2,group=1
    31                           	psect	text18,local,class=CODE,merge=1,delta=2,group=1
    32                           	psect	text19,local,class=CODE,merge=1,delta=2,group=1
    33                           	psect	text20,local,class=CODE,merge=1,delta=2,group=1
    34                           	psect	text21,local,class=CODE,merge=1,delta=2
    35                           	psect	text22,local,class=CODE,merge=1,delta=2
    36                           	psect	text23,local,class=CODE,merge=1,delta=2
    37                           	psect	text24,local,class=CODE,merge=1,delta=2
    38                           	psect	text25,local,class=CODE,merge=1,delta=2
    39                           	psect	text26,local,class=CODE,merge=1,delta=2
    40                           	psect	text27,local,class=CODE,merge=1,delta=2
    41                           	psect	text28,local,class=CODE,merge=1,delta=2
    42                           	psect	text29,local,class=CODE,merge=1,delta=2
    43                           	psect	text30,local,class=CODE,merge=1,delta=2
    44                           	psect	text31,local,class=CODE,merge=1,delta=2
    45                           	psect	intentry,global,class=CODE,delta=2
    46                           	dabs	1,0x7E,2
    47  0000                     
    48                           ; Version 2.10
    49                           ; Generated 31/07/2019 GMT
    50                           ; 
    51                           ; Copyright Â© 2019, Microchip Technology Inc. and its subsidiaries ("Microchip")
    52                           ; All rights reserved.
    53                           ; 
    54                           ; This software is developed by Microchip Technology Inc. and its subsidiaries ("Microch
      +                          ip").
    55                           ; 
    56                           ; Redistribution and use in source and binary forms, with or without modification, are
    57                           ; permitted provided that the following conditions are met:
    58                           ; 
    59                           ;     1. Redistributions of source code must retain the above copyright notice, this lis
      +                          t of
    60                           ;        conditions and the following disclaimer.
    61                           ; 
    62                           ;     2. Redistributions in binary form must reproduce the above copyright notice, this 
      +                          list
    63                           ;        of conditions and the following disclaimer in the documentation and/or other
    64                           ;        materials provided with the distribution.
    65                           ; 
    66                           ;     3. Microchip's name may not be used to endorse or promote products derived from th
      +                          is
    67                           ;        software without specific prior written permission.
    68                           ; 
    69                           ; THIS SOFTWARE IS PROVIDED BY MICROCHIP "AS IS" AND ANY EXPRESS OR IMPLIED WARRANTIES,
    70                           ; INCLUDING, BUT NOT LIMITED TO, THE IMPLIED WARRANTIES OF MERCHANTABILITY AND FITNESS F
      +                          OR
    71                           ; PURPOSE ARE DISCLAIMED.  IN NO EVENT SHALL MICROCHIP BE LIABLE FOR ANY DIRECT, INDIREC
      +                          T,
    72                           ; INCIDENTAL, SPECIAL, EXEMPLARY, OR CONSEQUENTIAL DAMAGES (INCLUDING BUT NOT LIMITED TO
    73                           ; PROCUREMENT OF SUBSTITUTE GOODS OR SERVICES; LOSS OF USE, DATA OR PROFITS; OR BUSINESS
    74                           ; INTERRUPTION) HOWSOEVER CAUSED AND ON ANY THEORY OF LIABILITY, WHETHER IN CONTRACT, ST
      +                          RICT
    75                           ; LIABILITY, OR TORT (INCLUDING NEGLIGENCE OR OTHERWISE) ARISING IN ANY WAY OUT OF THE U
      +                          SE OF
    76                           ; THIS SOFTWARE, EVEN IF ADVISED OF THE POSSIBILITY OF SUCH DAMAGE.
    77                           ; 
    78                           ; 
    79                           ; Code-generator required, PIC16F887 Definitions
    80                           ; 
    81                           ; SFR Addresses
    82  0000                     	;# 
    83  0001                     	;# 
    84  0002                     	;# 
    85  0003                     	;# 
    86  0004                     	;# 
    87  0005                     	;# 
    88  0006                     	;# 
    89  0007                     	;# 
    90  0008                     	;# 
    91  0009                     	;# 
    92  000A                     	;# 
    93  000B                     	;# 
    94  000C                     	;# 
    95  000D                     	;# 
    96  000E                     	;# 
    97  000E                     	;# 
    98  000F                     	;# 
    99  0010                     	;# 
   100  0011                     	;# 
   101  0012                     	;# 
   102  0013                     	;# 
   103  0014                     	;# 
   104  0015                     	;# 
   105  0015                     	;# 
   106  0016                     	;# 
   107  0017                     	;# 
   108  0018                     	;# 
   109  0019                     	;# 
   110  001A                     	;# 
   111  001B                     	;# 
   112  001B                     	;# 
   113  001C                     	;# 
   114  001D                     	;# 
   115  001E                     	;# 
   116  001F                     	;# 
   117  0081                     	;# 
   118  0085                     	;# 
   119  0086                     	;# 
   120  0087                     	;# 
   121  0088                     	;# 
   122  0089                     	;# 
   123  008C                     	;# 
   124  008D                     	;# 
   125  008E                     	;# 
   126  008F                     	;# 
   127  0090                     	;# 
   128  0091                     	;# 
   129  0092                     	;# 
   130  0093                     	;# 
   131  0093                     	;# 
   132  0093                     	;# 
   133  0094                     	;# 
   134  0095                     	;# 
   135  0096                     	;# 
   136  0097                     	;# 
   137  0098                     	;# 
   138  0099                     	;# 
   139  009A                     	;# 
   140  009B                     	;# 
   141  009C                     	;# 
   142  009D                     	;# 
   143  009E                     	;# 
   144  009F                     	;# 
   145  0105                     	;# 
   146  0107                     	;# 
   147  0108                     	;# 
   148  0109                     	;# 
   149  010C                     	;# 
   150  010C                     	;# 
   151  010D                     	;# 
   152  010E                     	;# 
   153  010F                     	;# 
   154  0185                     	;# 
   155  0187                     	;# 
   156  0188                     	;# 
   157  0189                     	;# 
   158  018C                     	;# 
   159  018D                     	;# 
   160  0000                     	;# 
   161  0001                     	;# 
   162  0002                     	;# 
   163  0003                     	;# 
   164  0004                     	;# 
   165  0005                     	;# 
   166  0006                     	;# 
   167  0007                     	;# 
   168  0008                     	;# 
   169  0009                     	;# 
   170  000A                     	;# 
   171  000B                     	;# 
   172  000C                     	;# 
   173  000D                     	;# 
   174  000E                     	;# 
   175  000E                     	;# 
   176  000F                     	;# 
   177  0010                     	;# 
   178  0011                     	;# 
   179  0012                     	;# 
   180  0013                     	;# 
   181  0014                     	;# 
   182  0015                     	;# 
   183  0015                     	;# 
   184  0016                     	;# 
   185  0017                     	;# 
   186  0018                     	;# 
   187  0019                     	;# 
   188  001A                     	;# 
   189  001B                     	;# 
   190  001B                     	;# 
   191  001C                     	;# 
   192  001D                     	;# 
   193  001E                     	;# 
   194  001F                     	;# 
   195  0081                     	;# 
   196  0085                     	;# 
   197  0086                     	;# 
   198  0087                     	;# 
   199  0088                     	;# 
   200  0089                     	;# 
   201  008C                     	;# 
   202  008D                     	;# 
   203  008E                     	;# 
   204  008F                     	;# 
   205  0090                     	;# 
   206  0091                     	;# 
   207  0092                     	;# 
   208  0093                     	;# 
   209  0093                     	;# 
   210  0093                     	;# 
   211  0094                     	;# 
   212  0095                     	;# 
   213  0096                     	;# 
   214  0097                     	;# 
   215  0098                     	;# 
   216  0099                     	;# 
   217  009A                     	;# 
   218  009B                     	;# 
   219  009C                     	;# 
   220  009D                     	;# 
   221  009E                     	;# 
   222  009F                     	;# 
   223  0105                     	;# 
   224  0107                     	;# 
   225  0108                     	;# 
   226  0109                     	;# 
   227  010C                     	;# 
   228  010C                     	;# 
   229  010D                     	;# 
   230  010E                     	;# 
   231  010F                     	;# 
   232  0185                     	;# 
   233  0187                     	;# 
   234  0188                     	;# 
   235  0189                     	;# 
   236  018C                     	;# 
   237  018D                     	;# 
   238  001E                     _ADRESH	set	30
   239  000E                     _TMR1L	set	14
   240  000F                     _TMR1H	set	15
   241  0010                     _T1CON	set	16
   242  001F                     _ADCON0bits	set	31
   243  001F                     _ADCON0	set	31
   244  0009                     _PORTE	set	9
   245  0007                     _PORTC	set	7
   246  0006                     _PORTB	set	6
   247  0005                     _PORTA	set	5
   248  0007                     _PORTCbits	set	7
   249  0008                     _PORTDbits	set	8
   250  0006                     _PORTBbits	set	6
   251  000C                     _PIR1bits	set	12
   252  0012                     _T2CONbits	set	18
   253  0005                     _PORTAbits	set	5
   254  0080                     _TMR1ON	set	128
   255  0036                     _RB6	set	54
   256  0035                     _RB5	set	53
   257  0039                     _RC1	set	57
   258  005F                     _GIE	set	95
   259  005E                     _PEIE	set	94
   260  0038                     _RC0	set	56
   261  003A                     _RC2	set	58
   262  0061                     _TMR2IF	set	97
   263  0043                     _RD3	set	67
   264  0042                     _RD2	set	66
   265  0047                     _RD7	set	71
   266  0046                     _RD6	set	70
   267  0045                     _RD5	set	69
   268  0044                     _RD4	set	68
   269  009E                     _ADRESL	set	158
   270  009F                     _ADCON1	set	159
   271  0089                     _TRISE	set	137
   272  0088                     _TRISD	set	136
   273  0087                     _TRISC	set	135
   274  0086                     _TRISB	set	134
   275  0085                     _TRISA	set	133
   276  008F                     _OSCCONbits	set	143
   277  008C                     _PIE1bits	set	140
   278  0092                     _PR2	set	146
   279  0189                     _ANSELH	set	393
   280  0188                     _ANSEL	set	392
   281                           
   282                           	psect	strings
   283  1000                     __pstrings:	
   284  1000                     stringtab:	
   285  1000                     __stringtab:	
   286                           
   287                           ;	String table - string pointers are 1 byte each
   288  1000  1BFF               	btfsc	btemp+1,7
   289  1001  280A               	ljmp	stringcode
   290  1002  1383               	bcf	3,7
   291  1003  187F               	btfsc	btemp+1,0
   292  1004  1783               	bsf	3,7
   293  1005  0800               	movf	0,w
   294  1006  0A84               	incf	4,f
   295  1007  1903               	skipnz
   296  1008  0AFF               	incf	btemp+1,f
   297  1009  0008               	return
   298  100A                     stringcode:	
   299  100A                     stringdir:	
   300  100A  3010               	movlw	high stringdir
   301  100B  008A               	movwf	10
   302  100C  0804               	movf	4,w
   303  100D  0A84               	incf	4,f
   304  100E  0782               	addwf	2,f
   305  100F                     __stringbase:	
   306  100F  3400               	retlw	0
   307  1010                     __end_of__stringtab:	
   308  1010                     STR_14:	
   309  1010  3445               	retlw	69	;'E'
   310  1011  346C               	retlw	108	;'l'
   311  1012  3469               	retlw	105	;'i'
   312  1013  346A               	retlw	106	;'j'
   313  1014  3461               	retlw	97	;'a'
   314  1015  3420               	retlw	32	;' '
   315  1016  3475               	retlw	117	;'u'
   316  1017  346E               	retlw	110	;'n'
   317  1018  3461               	retlw	97	;'a'
   318  1019  3420               	retlw	32	;' '
   319  101A  346F               	retlw	111	;'o'
   320  101B  3470               	retlw	112	;'p'
   321  101C  3463               	retlw	99	;'c'
   322  101D  3469               	retlw	105	;'i'
   323  101E  34F3               	retlw	-13
   324  101F  346E               	retlw	110	;'n'
   325  1020  343A               	retlw	58	;':'
   326  1021  3420               	retlw	32	;' '
   327  1022  3400               	retlw	0
   328  1023                     STR_1:	
   329  1023  3445               	retlw	69	;'E'
   330  1024  346C               	retlw	108	;'l'
   331  1025  3469               	retlw	105	;'i'
   332  1026  346A               	retlw	106	;'j'
   333  1027  3461               	retlw	97	;'a'
   334  1028  3420               	retlw	32	;' '
   335  1029  3475               	retlw	117	;'u'
   336  102A  346E               	retlw	110	;'n'
   337  102B  3461               	retlw	97	;'a'
   338  102C  3420               	retlw	32	;' '
   339  102D  346F               	retlw	111	;'o'
   340  102E  3470               	retlw	112	;'p'
   341  102F  3463               	retlw	99	;'c'
   342  1030  3469               	retlw	105	;'i'
   343  1031  346F               	retlw	111	;'o'
   344  1032  346E               	retlw	110	;'n'
   345  1033  343A               	retlw	58	;':'
   346  1034  3420               	retlw	32	;' '
   347  1035  3400               	retlw	0
   348  1036                     STR_8:	
   349  1036  3469               	retlw	105	;'i'
   350  1037  346E               	retlw	110	;'n'
   351  1038  3473               	retlw	115	;'s'
   352  1039  3475               	retlw	117	;'u'
   353  103A  3466               	retlw	102	;'f'
   354  103B  3469               	retlw	105	;'i'
   355  103C  3463               	retlw	99	;'c'
   356  103D  3469               	retlw	105	;'i'
   357  103E  3465               	retlw	101	;'e'
   358  103F  346E               	retlw	110	;'n'
   359  1040  3474               	retlw	116	;'t'
   360  1041  3465               	retlw	101	;'e'
   361  1042  3473               	retlw	115	;'s'
   362  1043  3400               	retlw	0
   363  1044                     STR_3:	
   364  1044  3472               	retlw	114	;'r'
   365  1045  3465               	retlw	101	;'e'
   366  1046  3463               	retlw	99	;'c'
   367  1047  3468               	retlw	104	;'h'
   368  1048  3461               	retlw	97	;'a'
   369  1049  347A               	retlw	122	;'z'
   370  104A  3461               	retlw	97	;'a'
   371  104B  3464               	retlw	100	;'d'
   372  104C  346F               	retlw	111	;'o'
   373  104D  343A               	retlw	58	;':'
   374  104E  3420               	retlw	32	;' '
   375  104F  3400               	retlw	0
   376  1050                     STR_9:	
   377  1050  3449               	retlw	73	;'I'
   378  1051  346E               	retlw	110	;'n'
   379  1052  3467               	retlw	103	;'g'
   380  1053  3472               	retlw	114	;'r'
   381  1054  3465               	retlw	101	;'e'
   382  1055  3473               	retlw	115	;'s'
   383  1056  3465               	retlw	101	;'e'
   384  1057  3420               	retlw	32	;' '
   385  1058  346D               	retlw	109	;'m'
   386  1059  3461               	retlw	97	;'a'
   387  105A  3473               	retlw	115	;'s'
   388  105B  3400               	retlw	0
   389  105C                     STR_4:	
   390  105C  3463               	retlw	99	;'c'
   391  105D  3472               	retlw	114	;'r'
   392  105E  3465               	retlw	101	;'e'
   393  105F  3464               	retlw	100	;'d'
   394  1060  3469               	retlw	105	;'i'
   395  1061  3474               	retlw	116	;'t'
   396  1062  346F               	retlw	111	;'o'
   397  1063  3473               	retlw	115	;'s'
   398  1064  343A               	retlw	58	;':'
   399  1065  3420               	retlw	32	;' '
   400  1066  3400               	retlw	0
   401  1067                     STR_12:	
   402  1067  3449               	retlw	73	;'I'
   403  1068  346E               	retlw	110	;'n'
   404  1069  3467               	retlw	103	;'g'
   405  106A  3472               	retlw	114	;'r'
   406  106B  3465               	retlw	101	;'e'
   407  106C  3473               	retlw	115	;'s'
   408  106D  3465               	retlw	101	;'e'
   409  106E  3420               	retlw	32	;' '
   410  106F  3455               	retlw	85	;'U'
   411  1070  346E               	retlw	110	;'n'
   412  1071  3400               	retlw	0
   413  1072                     STR_11:	
   414  1072  3442               	retlw	66	;'B'
   415  1073  3469               	retlw	105	;'i'
   416  1074  3465               	retlw	101	;'e'
   417  1075  346E               	retlw	110	;'n'
   418  1076  3476               	retlw	118	;'v'
   419  1077  3465               	retlw	101	;'e'
   420  1078  346E               	retlw	110	;'n'
   421  1079  3469               	retlw	105	;'i'
   422  107A  3464               	retlw	100	;'d'
   423  107B  346F               	retlw	111	;'o'
   424  107C  3400               	retlw	0
   425  107D                     STR_2:	
   426  107D  3445               	retlw	69	;'E'
   427  107E  3473               	retlw	115	;'s'
   428  107F  3470               	retlw	112	;'p'
   429  1080  3465               	retlw	101	;'e'
   430  1081  3472               	retlw	114	;'r'
   431  1082  3465               	retlw	101	;'e'
   432  1083  342E               	retlw	46	;'.'
   433  1084  342E               	retlw	46	;'.'
   434  1085  342E               	retlw	46	;'.'
   435  1086  3400               	retlw	0
   436  1087                     STR_7:	
   437  1087  3443               	retlw	67	;'C'
   438  1088  3472               	retlw	114	;'r'
   439  1089  3465               	retlw	101	;'e'
   440  108A  3464               	retlw	100	;'d'
   441  108B  3469               	retlw	105	;'i'
   442  108C  3474               	retlw	116	;'t'
   443  108D  346F               	retlw	111	;'o'
   444  108E  3473               	retlw	115	;'s'
   445  108F  3400               	retlw	0
   446  1090                     STR_10:	
   447  1090  3465               	retlw	101	;'e'
   448  1091  346E               	retlw	110	;'n'
   449  1092  3476               	retlw	118	;'v'
   450  1093  3461               	retlw	97	;'a'
   451  1094  3473               	retlw	115	;'s'
   452  1095  3465               	retlw	101	;'e'
   453  1096  3473               	retlw	115	;'s'
   454  1097  3400               	retlw	0
   455  1098                     STR_13:	
   456  1098  3445               	retlw	69	;'E'
   457  1099  346E               	retlw	110	;'n'
   458  109A  3476               	retlw	118	;'v'
   459  109B  3461               	retlw	97	;'a'
   460  109C  3473               	retlw	115	;'s'
   461  109D  3465               	retlw	101	;'e'
   462  109E  3400               	retlw	0
   463  109F                     STR_6:	
   464  109F  3430               	retlw	48	;'0'
   465  10A0  3400               	retlw	0
   466  1085                     
   467                           ; #config settings
   468  0000                     
   469                           	psect	cinit
   470  0013                     start_initialization:	
   471  0013                     __initialization:	
   472                           
   473                           ; Clear objects allocated to COMMON
   474  0013  01F9               	clrf	__pbssCOMMON& (0+127)
   475  0014  01FA               	clrf	(__pbssCOMMON+1)& (0+127)
   476                           
   477                           ; Clear objects allocated to BANK0
   478  0015  1383               	bcf	3,7	;select IRP bank0
   479  0016  3066               	movlw	low __pbssBANK0
   480  0017  0084               	movwf	4
   481  0018  306E               	movlw	low (__pbssBANK0+8)
   482  0019  120A  158A  2001  120A  118A  	fcall	clear_ram0
   483                           
   484                           ; Clear objects allocated to BANK1
   485  001E  30A0               	movlw	low __pbssBANK1
   486  001F  0084               	movwf	4
   487  0020  30C0               	movlw	low (__pbssBANK1+32)
   488  0021  120A  158A  2001  120A  118A  	fcall	clear_ram0
   489  0026                     end_of_initialization:	
   490                           ;End of C runtime variable initialization code
   491                           
   492  0026                     __end_of__initialization:	
   493  0026  0183               	clrf	3
   494  0027  120A  118A  282A   	ljmp	_main	;jump to C main() function
   495                           
   496                           	psect	bssCOMMON
   497  0079                     __pbssCOMMON:	
   498  0079                     _alto_bajo:	
   499  0079                     	ds	2
   500                           
   501                           	psect	bssBANK0
   502  0066                     __pbssBANK0:	
   503  0066                     _auxiliar:	
   504  0066                     	ds	2
   505  0068                     _parpadeo:	
   506  0068                     	ds	2
   507  006A                     _creditos_temp:	
   508  006A                     	ds	2
   509  006C                     _creditos_temp2:	
   510  006C                     	ds	2
   511                           
   512                           	psect	bssBANK1
   513  00A0                     __pbssBANK1:	
   514  00A0                     _creditos:	
   515  00A0                     	ds	4
   516  00A4                     _alerta:	
   517  00A4                     	ds	2
   518  00A6                     _angulo:	
   519  00A6                     	ds	2
   520  00A8                     _peso:	
   521  00A8                     	ds	2
   522  00AA                     _altura:	
   523  00AA                     	ds	2
   524  00AC                     _dato_c:	
   525  00AC                     	ds	20
   526                           
   527                           	psect	clrtext
   528  0801                     clear_ram0:	
   529                           ;	Called with FSR containing the base address, and
   530                           ;	W with the last address+1
   531                           
   532  0801  0064               	clrwdt	;clear the watchdog before getting into this loop
   533  0802                     clrloop0:	
   534  0802  0180               	clrf	0	;clear RAM location pointed to by FSR
   535  0803  0A84               	incf	4,f	;increment pointer
   536  0804  0604               	xorwf	4,w	;XOR with final address
   537  0805  1903               	btfsc	3,2	;have we reached the end yet?
   538  0806  3400               	retlw	0	;all done for this memory range, return
   539  0807  0604               	xorwf	4,w	;XOR again to restore value
   540  0808  2802               	goto	clrloop0	;do the next byte
   541                           
   542                           	psect	cstackBANK1
   543  00C0                     __pcstackBANK1:	
   544  00C0                     ??_main:	
   545                           
   546                           ; 1 bytes @ 0x0
   547  00C0                     	ds	3
   548  00C3                     main@motorBarritas:	
   549                           
   550                           ; 2 bytes @ 0x3
   551  00C3                     	ds	2
   552  00C5                     _main$445:	
   553                           
   554                           ; 1 bytes @ 0x5
   555  00C5                     	ds	1
   556  00C6                     _main$446:	
   557                           
   558                           ; 1 bytes @ 0x6
   559  00C6                     	ds	1
   560  00C7                     _main$447:	
   561                           
   562                           ; 1 bytes @ 0x7
   563  00C7                     	ds	1
   564  00C8                     main@pet:	
   565                           
   566                           ; 2 bytes @ 0x8
   567  00C8                     	ds	2
   568  00CA                     main@peso_temp:	
   569                           
   570                           ; 2 bytes @ 0xA
   571  00CA                     	ds	2
   572  00CC                     main@c:	
   573                           
   574                           ; 2 bytes @ 0xC
   575  00CC                     	ds	2
   576  00CE                     main@motorArroz:	
   577                           
   578                           ; 2 bytes @ 0xE
   579  00CE                     	ds	2
   580  00D0                     main@aceptado:	
   581                           
   582                           ; 2 bytes @ 0x10
   583  00D0                     	ds	2
   584  00D2                     main@motorRecepcion:	
   585                           
   586                           ; 2 bytes @ 0x12
   587  00D2                     	ds	2
   588  00D4                     main@motor_temp:	
   589                           
   590                           ; 2 bytes @ 0x14
   591  00D4                     	ds	2
   592                           
   593                           	psect	cstackCOMMON
   594  0070                     __pcstackCOMMON:	
   595  0070                     ?_ConfiguracionInicial:	
   596  0070                     ?_Menu1:	
   597                           ; 1 bytes @ 0x0
   598                           
   599  0070                     ?_MostrarCreditos:	
   600                           ; 1 bytes @ 0x0
   601                           
   602  0070                     ?_CreditosInsuf:	
   603                           ; 1 bytes @ 0x0
   604                           
   605  0070                     ?_Lcd_Port:	
   606                           ; 1 bytes @ 0x0
   607                           
   608  0070                     ?_Lcd_Cmd:	
   609                           ; 1 bytes @ 0x0
   610                           
   611  0070                     ?_Lcd_Init:	
   612                           ; 1 bytes @ 0x0
   613                           
   614  0070                     ?_Lcd_Write_Char:	
   615                           ; 1 bytes @ 0x0
   616                           
   617  0070                     ?_timer2:	
   618                           ; 1 bytes @ 0x0
   619                           
   620  0070                     ??_timer2:	
   621                           ; 1 bytes @ 0x0
   622                           
   623  0070                     ?_main:	
   624                           ; 1 bytes @ 0x0
   625                           
   626  0070                     ?_Lcd_Clear:	
   627                           ; 1 bytes @ 0x0
   628                           
   629                           
   630                           ; 2 bytes @ 0x0
   631  0070                     	ds	3
   632  0073                     ??_ConfiguracionInicial:	
   633  0073                     ?_Desactiva:	
   634                           ; 1 bytes @ 0x3
   635                           
   636  0073                     ??_MotorPasos:	
   637                           ; 1 bytes @ 0x3
   638                           
   639  0073                     ??_Lcd_Port:	
   640                           ; 1 bytes @ 0x3
   641                           
   642  0073                     ??___fleq:	
   643                           ; 1 bytes @ 0x3
   644                           
   645  0073                     ??___flge:	
   646                           ; 1 bytes @ 0x3
   647                           
   648  0073                     ?_Pesar:	
   649                           ; 1 bytes @ 0x3
   650                           
   651  0073                     ?__Umul8_16:	
   652                           ; 2 bytes @ 0x3
   653                           
   654  0073                     ?___wmul:	
   655                           ; 2 bytes @ 0x3
   656                           
   657  0073                     ?___lwdiv:	
   658                           ; 2 bytes @ 0x3
   659                           
   660  0073                     ?___lwmod:	
   661                           ; 2 bytes @ 0x3
   662                           
   663  0073                     ?___xxtofl:	
   664                           ; 2 bytes @ 0x3
   665                           
   666  0073                     Lcd_Port@a:	
   667                           ; 4 bytes @ 0x3
   668                           
   669  0073                     ___fladd@signs:	
   670                           ; 1 bytes @ 0x3
   671                           
   672  0073                     __Umul8_16@multiplicand:	
   673                           ; 1 bytes @ 0x3
   674                           
   675  0073                     Desactiva@motor:	
   676                           ; 1 bytes @ 0x3
   677                           
   678  0073                     ___wmul@multiplier:	
   679                           ; 2 bytes @ 0x3
   680                           
   681  0073                     ___lwdiv@divisor:	
   682                           ; 2 bytes @ 0x3
   683                           
   684  0073                     ___lwmod@divisor:	
   685                           ; 2 bytes @ 0x3
   686                           
   687  0073                     ___xxtofl@val:	
   688                           ; 2 bytes @ 0x3
   689                           
   690                           
   691                           ; 4 bytes @ 0x3
   692  0073                     	ds	1
   693  0074                     ??_Lcd_Cmd:	
   694  0074                     ??_Lcd_Write_Char:	
   695                           ; 1 bytes @ 0x4
   696                           
   697  0074                     ___fladd@aexp:	
   698                           ; 1 bytes @ 0x4
   699                           
   700                           
   701                           ; 1 bytes @ 0x4
   702  0074                     	ds	1
   703  0075                     ??_Desactiva:	
   704  0075                     ??_Pesar:	
   705                           ; 1 bytes @ 0x5
   706                           
   707  0075                     ??__Umul8_16:	
   708                           ; 1 bytes @ 0x5
   709                           
   710  0075                     Lcd_Write_Char@temp:	
   711                           ; 1 bytes @ 0x5
   712                           
   713  0075                     ___fladd@bexp:	
   714                           ; 1 bytes @ 0x5
   715                           
   716  0075                     ___wmul@multiplicand:	
   717                           ; 1 bytes @ 0x5
   718                           
   719  0075                     ___lwdiv@dividend:	
   720                           ; 2 bytes @ 0x5
   721                           
   722  0075                     ___lwmod@dividend:	
   723                           ; 2 bytes @ 0x5
   724                           
   725                           
   726                           ; 2 bytes @ 0x5
   727  0075                     	ds	1
   728  0076                     Lcd_Cmd@a:	
   729  0076                     Lcd_Write_Char@y:	
   730                           ; 1 bytes @ 0x6
   731                           
   732  0076                     ___fladd@grs:	
   733                           ; 1 bytes @ 0x6
   734                           
   735                           
   736                           ; 1 bytes @ 0x6
   737  0076                     	ds	1
   738  0077                     ??_Lcd_Clear:	
   739  0077                     ?_Lcd_Set_Cursor:	
   740                           ; 1 bytes @ 0x7
   741                           
   742  0077                     ??_Lcd_Init:	
   743                           ; 1 bytes @ 0x7
   744                           
   745  0077                     ??___wmul:	
   746                           ; 1 bytes @ 0x7
   747                           
   748  0077                     ??___lwdiv:	
   749                           ; 1 bytes @ 0x7
   750                           
   751  0077                     ??___lwmod:	
   752                           ; 1 bytes @ 0x7
   753                           
   754  0077                     ??___flsub:	
   755                           ; 1 bytes @ 0x7
   756                           
   757  0077                     Lcd_Set_Cursor@b:	
   758                           ; 1 bytes @ 0x7
   759                           
   760  0077                     Lcd_Write_Char@a:	
   761                           ; 1 bytes @ 0x7
   762                           
   763  0077                     ___fltol@sign1:	
   764                           ; 1 bytes @ 0x7
   765                           
   766  0077                     Pesar@adc:	
   767                           ; 1 bytes @ 0x7
   768                           
   769  0077                     ___wmul@product:	
   770                           ; 2 bytes @ 0x7
   771                           
   772                           
   773                           ; 2 bytes @ 0x7
   774  0077                     	ds	1
   775  0078                     ___fltol@exp1:	
   776  0078                     ___lwmod@counter:	
   777                           ; 1 bytes @ 0x8
   778                           
   779                           
   780                           ; 1 bytes @ 0x8
   781  0078                     	ds	1
   782  0079                     ??_MostrarCreditos:	
   783                           
   784                           	psect	cstackBANK0
   785  0020                     __pcstackBANK0:	
   786                           ; 1 bytes @ 0x9
   787                           
   788  0020                     ?___fleq:	
   789  0020                     ?___flge:	
   790                           ; 1 bit 
   791                           
   792  0020                     ??_Lcd_Set_Cursor:	
   793                           ; 1 bit 
   794                           
   795  0020                     ?_Lcd_Write_String:	
   796                           ; 1 bytes @ 0x0
   797                           
   798  0020                     ??___xxtofl:	
   799                           ; 1 bytes @ 0x0
   800                           
   801  0020                     ?_MotorPasos:	
   802                           ; 1 bytes @ 0x0
   803                           
   804  0020                     ?___fladd:	
   805                           ; 2 bytes @ 0x0
   806                           
   807  0020                     ___lwdiv@counter:	
   808                           ; 4 bytes @ 0x0
   809                           
   810  0020                     Lcd_Write_String@a:	
   811                           ; 1 bytes @ 0x0
   812                           
   813  0020                     MotorPasos@motor_p:	
   814                           ; 2 bytes @ 0x0
   815                           
   816  0020                     __Umul8_16@product:	
   817                           ; 2 bytes @ 0x0
   818                           
   819  0020                     ___fleq@ff1:	
   820                           ; 2 bytes @ 0x0
   821                           
   822  0020                     ___flge@ff1:	
   823                           ; 4 bytes @ 0x0
   824                           
   825  0020                     ___fladd@b:	
   826                           ; 4 bytes @ 0x0
   827                           
   828                           
   829                           ; 4 bytes @ 0x0
   830  0020                     	ds	1
   831  0021                     ___lwdiv@quotient:	
   832                           
   833                           ; 2 bytes @ 0x1
   834  0021                     	ds	1
   835  0022                     ??_Lcd_Write_String:	
   836  0022                     Lcd_Set_Cursor@a:	
   837                           ; 1 bytes @ 0x2
   838                           
   839  0022                     MotorPasos@pasos:	
   840                           ; 1 bytes @ 0x2
   841                           
   842  0022                     __Umul8_16@word_mpld:	
   843                           ; 2 bytes @ 0x2
   844                           
   845                           
   846                           ; 2 bytes @ 0x2
   847  0022                     	ds	1
   848  0023                     ?_utoa:	
   849  0023                     Lcd_Set_Cursor@z:	
   850                           ; 1 bytes @ 0x3
   851                           
   852  0023                     utoa@val:	
   853                           ; 1 bytes @ 0x3
   854                           
   855                           
   856                           ; 2 bytes @ 0x3
   857  0023                     	ds	1
   858  0024                     Lcd_Set_Cursor@y:	
   859  0024                     ___xxtofl@sign:	
   860                           ; 1 bytes @ 0x4
   861                           
   862  0024                     __Umul8_16@multiplier:	
   863                           ; 1 bytes @ 0x4
   864                           
   865  0024                     MotorPasos@sentido:	
   866                           ; 1 bytes @ 0x4
   867                           
   868  0024                     ___fleq@ff2:	
   869                           ; 2 bytes @ 0x4
   870                           
   871  0024                     ___flge@ff2:	
   872                           ; 4 bytes @ 0x4
   873                           
   874  0024                     ___fladd@a:	
   875                           ; 4 bytes @ 0x4
   876                           
   877                           
   878                           ; 4 bytes @ 0x4
   879  0024                     	ds	1
   880  0025                     ?___flmul:	
   881  0025                     Lcd_Set_Cursor@temp:	
   882                           ; 4 bytes @ 0x5
   883                           
   884  0025                     ___xxtofl@exp:	
   885                           ; 1 bytes @ 0x5
   886                           
   887  0025                     Lcd_Write_String@i:	
   888                           ; 1 bytes @ 0x5
   889                           
   890  0025                     utoa@base:	
   891                           ; 2 bytes @ 0x5
   892                           
   893  0025                     ___flmul@b:	
   894                           ; 2 bytes @ 0x5
   895                           
   896                           
   897                           ; 4 bytes @ 0x5
   898  0025                     	ds	1
   899  0026                     MotorPasos@tipo:	
   900  0026                     ___xxtofl@arg:	
   901                           ; 2 bytes @ 0x6
   902                           
   903                           
   904                           ; 4 bytes @ 0x6
   905  0026                     	ds	1
   906  0027                     ??_CreditosInsuf:	
   907  0027                     ??_utoa:	
   908                           ; 1 bytes @ 0x7
   909                           
   910                           
   911                           ; 1 bytes @ 0x7
   912  0027                     	ds	1
   913  0028                     ??___fladd:	
   914  0028                     MotorPasos@num:	
   915                           ; 1 bytes @ 0x8
   916                           
   917  0028                     utoa@v:	
   918                           ; 2 bytes @ 0x8
   919                           
   920                           
   921                           ; 2 bytes @ 0x8
   922  0028                     	ds	1
   923  0029                     ___flmul@a:	
   924                           
   925                           ; 4 bytes @ 0x9
   926  0029                     	ds	1
   927  002A                     ?___fldiv:	
   928  002A                     utoa@c:	
   929                           ; 4 bytes @ 0xA
   930                           
   931  002A                     MotorPasos@retardo:	
   932                           ; 1 bytes @ 0xA
   933                           
   934  002A                     ___fldiv@a:	
   935                           ; 2 bytes @ 0xA
   936                           
   937                           
   938                           ; 4 bytes @ 0xA
   939  002A                     	ds	1
   940  002B                     utoa@buf:	
   941                           
   942                           ; 1 bytes @ 0xB
   943  002B                     	ds	1
   944  002C                     ?_itoa:	
   945  002C                     MotorPasos@i:	
   946                           ; 1 bytes @ 0xC
   947                           
   948  002C                     itoa@val:	
   949                           ; 2 bytes @ 0xC
   950                           
   951                           
   952                           ; 2 bytes @ 0xC
   953  002C                     	ds	1
   954  002D                     ??___flmul:	
   955                           
   956                           ; 1 bytes @ 0xD
   957  002D                     	ds	1
   958  002E                     MotorPasos@paso:	
   959  002E                     itoa@base:	
   960                           ; 2 bytes @ 0xE
   961                           
   962  002E                     ___fldiv@b:	
   963                           ; 2 bytes @ 0xE
   964                           
   965                           
   966                           ; 4 bytes @ 0xE
   967  002E                     	ds	2
   968  0030                     ??_itoa:	
   969  0030                     ?___flsub:	
   970                           ; 1 bytes @ 0x10
   971                           
   972  0030                     MotorPasos@n:	
   973                           ; 4 bytes @ 0x10
   974                           
   975  0030                     ___flsub@a:	
   976                           ; 2 bytes @ 0x10
   977                           
   978                           
   979                           ; 4 bytes @ 0x10
   980  0030                     	ds	2
   981  0032                     ??___fldiv:	
   982  0032                     ___flmul@sign:	
   983                           ; 1 bytes @ 0x12
   984                           
   985  0032                     itoa@buf:	
   986                           ; 1 bytes @ 0x12
   987                           
   988                           
   989                           ; 1 bytes @ 0x12
   990  0032                     	ds	1
   991  0033                     ___flmul@grs:	
   992                           
   993                           ; 4 bytes @ 0x13
   994  0033                     	ds	1
   995  0034                     ___flsub@b:	
   996                           
   997                           ; 4 bytes @ 0x14
   998  0034                     	ds	3
   999  0037                     ___flmul@aexp:	
  1000  0037                     ___fldiv@rem:	
  1001                           ; 1 bytes @ 0x17
  1002                           
  1003                           
  1004                           ; 4 bytes @ 0x17
  1005  0037                     	ds	1
  1006  0038                     ___flmul@bexp:	
  1007                           
  1008                           ; 1 bytes @ 0x18
  1009  0038                     	ds	1
  1010  0039                     ___flmul@prod:	
  1011                           
  1012                           ; 4 bytes @ 0x19
  1013  0039                     	ds	2
  1014  003B                     ___fldiv@sign:	
  1015                           
  1016                           ; 1 bytes @ 0x1B
  1017  003B                     	ds	1
  1018  003C                     ___fldiv@new_exp:	
  1019                           
  1020                           ; 2 bytes @ 0x1C
  1021  003C                     	ds	1
  1022  003D                     ___flmul@temp:	
  1023                           
  1024                           ; 2 bytes @ 0x1D
  1025  003D                     	ds	1
  1026  003E                     ___fldiv@grs:	
  1027                           
  1028                           ; 4 bytes @ 0x1E
  1029  003E                     	ds	4
  1030  0042                     ___fldiv@bexp:	
  1031                           
  1032                           ; 1 bytes @ 0x22
  1033  0042                     	ds	1
  1034  0043                     ___fldiv@aexp:	
  1035                           
  1036                           ; 1 bytes @ 0x23
  1037  0043                     	ds	1
  1038  0044                     ?___fltol:	
  1039  0044                     ___fltol@f1:	
  1040                           ; 4 bytes @ 0x24
  1041                           
  1042                           
  1043                           ; 4 bytes @ 0x24
  1044  0044                     	ds	4
  1045  0048                     ??___fltol:	
  1046                           
  1047                           ; 1 bytes @ 0x28
  1048  0048                     	ds	5
  1049  004D                     ??_Menu1:	
  1050  004D                     ?_Medir:	
  1051                           ; 1 bytes @ 0x2D
  1052                           
  1053                           
  1054                           ; 2 bytes @ 0x2D
  1055  004D                     	ds	2
  1056  004F                     ??_Medir:	
  1057                           
  1058                           ; 1 bytes @ 0x2F
  1059  004F                     	ds	1
  1060  0050                     Medir@medida:	
  1061                           
  1062                           ; 2 bytes @ 0x30
  1063  0050                     	ds	2
  1064  0052                     ?_MotorPasos_sensor:	
  1065  0052                     MotorPasos_sensor@motor_p:	
  1066                           ; 2 bytes @ 0x32
  1067                           
  1068                           
  1069                           ; 2 bytes @ 0x32
  1070  0052                     	ds	2
  1071  0054                     MotorPasos_sensor@pasos:	
  1072                           
  1073                           ; 2 bytes @ 0x34
  1074  0054                     	ds	2
  1075  0056                     ??_MotorPasos_sensor:	
  1076                           
  1077                           ; 1 bytes @ 0x36
  1078  0056                     	ds	2
  1079  0058                     MotorPasos_sensor@sentido:	
  1080                           
  1081                           ; 2 bytes @ 0x38
  1082  0058                     	ds	2
  1083  005A                     MotorPasos_sensor@i:	
  1084                           
  1085                           ; 2 bytes @ 0x3A
  1086  005A                     	ds	2
  1087  005C                     MotorPasos_sensor@medida:	
  1088                           
  1089                           ; 2 bytes @ 0x3C
  1090  005C                     	ds	2
  1091  005E                     MotorPasos_sensor@medida_temp:	
  1092                           
  1093                           ; 2 bytes @ 0x3E
  1094  005E                     	ds	2
  1095  0060                     MotorPasos_sensor@paso:	
  1096                           
  1097                           ; 2 bytes @ 0x40
  1098  0060                     	ds	2
  1099  0062                     MotorPasos_sensor@tipo:	
  1100                           
  1101                           ; 2 bytes @ 0x42
  1102  0062                     	ds	2
  1103  0064                     MotorPasos_sensor@n:	
  1104                           
  1105                           ; 2 bytes @ 0x44
  1106  0064                     	ds	2
  1107                           
  1108                           	psect	maintext
  1109  002A                     __pmaintext:	
  1110 ;;
  1111 ;;Main: autosize = 0, tempsize = 3, incstack = 0, save=0
  1112 ;;
  1113 ;; *************** function _main *****************
  1114 ;; Defined at:
  1115 ;;		line 112 in file "Codigo_TT2_01.c"
  1116 ;; Parameters:    Size  Location     Type
  1117 ;;		None
  1118 ;; Auto vars:     Size  Location     Type
  1119 ;;  c               2   12[BANK1 ] int 
  1120 ;;  motor_temp      2   20[BANK1 ] int 
  1121 ;;  motorRecepci    2   18[BANK1 ] int 
  1122 ;;  aceptado        2   16[BANK1 ] int 
  1123 ;;  motorArroz      2   14[BANK1 ] int 
  1124 ;;  peso_temp       2   10[BANK1 ] int 
  1125 ;;  pet             2    8[BANK1 ] int 
  1126 ;;  motorBarrita    2    3[BANK1 ] int 
  1127 ;;  pasos           2    0        int 
  1128 ;; Return value:  Size  Location     Type
  1129 ;;                  1    wreg      void 
  1130 ;; Registers used:
  1131 ;;		wreg, fsr0l, fsr0h, status,2, status,0, btemp+1, pclath, cstack
  1132 ;; Tracked objects:
  1133 ;;		On entry : B00/0
  1134 ;;		On exit  : 0/0
  1135 ;;		Unchanged: 0/0
  1136 ;; Data sizes:     COMMON   BANK0   BANK1   BANK3   BANK2
  1137 ;;      Params:         0       0       0       0       0
  1138 ;;      Locals:         0       0      19       0       0
  1139 ;;      Temps:          0       0       3       0       0
  1140 ;;      Totals:         0       0      22       0       0
  1141 ;;Total ram usage:       22 bytes
  1142 ;; Hardware stack levels required when called:    6
  1143 ;; This function calls:
  1144 ;;		_ConfiguracionInicial
  1145 ;;		_CreditosInsuf
  1146 ;;		_Desactiva
  1147 ;;		_Lcd_Clear
  1148 ;;		_Lcd_Init
  1149 ;;		_Lcd_Set_Cursor
  1150 ;;		_Lcd_Write_String
  1151 ;;		_Menu1
  1152 ;;		_MostrarCreditos
  1153 ;;		_MotorPasos
  1154 ;;		_MotorPasos_sensor
  1155 ;;		_Pesar
  1156 ;;		___fladd
  1157 ;;		___fleq
  1158 ;;		___flge
  1159 ;;		___flsub
  1160 ;;		___fltol
  1161 ;; This function is called by:
  1162 ;;		Startup code after reset
  1163 ;; This function uses a non-reentrant model
  1164 ;;
  1165                           
  1166                           
  1167                           ;psect for function _main
  1168  002A                     _main:	
  1169  002A                     l4581:	
  1170                           ;incstack = 0
  1171                           ; Regs used in _main: [wreg-fsr0h+status,2+status,0+btemp+1+pclath+cstack]
  1172                           
  1173  002A                     l4583:	
  1174                           
  1175                           ;Codigo_TT2_01.c: 118:     T2CONbits.T2CKPS = 0b11;
  1176  002A  3003               	movlw	3
  1177  002B  1283               	bcf	3,5	;RP0=0, select bank0
  1178  002C  1303               	bcf	3,6	;RP1=0, select bank0
  1179  002D  0492               	iorwf	18,f	;volatile
  1180  002E                     l4585:	
  1181                           
  1182                           ;Codigo_TT2_01.c: 119:     T2CONbits.TOUTPS = 0b1111;
  1183  002E  3078               	movlw	120
  1184  002F  0492               	iorwf	18,f	;volatile
  1185  0030                     l4587:	
  1186                           
  1187                           ;Codigo_TT2_01.c: 120:     T2CONbits.TMR2ON = 1;
  1188  0030  1512               	bsf	18,2	;volatile
  1189  0031                     l4589:	
  1190                           
  1191                           ;Codigo_TT2_01.c: 121:     PIR1bits.TMR2IF = 0;
  1192  0031  108C               	bcf	12,1	;volatile
  1193  0032                     l4591:	
  1194                           
  1195                           ;Codigo_TT2_01.c: 122:     PIE1bits.TMR2IE = 1;
  1196  0032  1683               	bsf	3,5	;RP0=1, select bank1
  1197  0033  1303               	bcf	3,6	;RP1=0, select bank1
  1198  0034  148C               	bsf	12,1	;volatile
  1199  0035                     l4593:	
  1200                           
  1201                           ;Codigo_TT2_01.c: 123:     PEIE = 1;
  1202  0035  170B               	bsf	11,6	;volatile
  1203  0036                     l4595:	
  1204                           
  1205                           ;Codigo_TT2_01.c: 124:     GIE = 1;
  1206  0036  178B               	bsf	11,7	;volatile
  1207  0037                     l4597:	
  1208                           
  1209                           ;Codigo_TT2_01.c: 126:     ConfiguracionInicial();
  1210  0037  160A  158A  2646  120A  118A  	fcall	_ConfiguracionInicial
  1211  003C                     l4599:	
  1212                           
  1213                           ;Codigo_TT2_01.c: 127:     Lcd_Init();
  1214  003C  160A  118A  210D  120A  118A  	fcall	_Lcd_Init
  1215  0041                     l4601:	
  1216                           
  1217                           ;Codigo_TT2_01.c: 131:         motorRecepcion = 0;
  1218  0041  1683               	bsf	3,5	;RP0=1, select bank1
  1219  0042  1303               	bcf	3,6	;RP1=0, select bank1
  1220  0043  01D2               	clrf	main@motorRecepcion^(0+128)
  1221  0044  01D3               	clrf	(main@motorRecepcion+1)^(0+128)
  1222  0045                     l4603:	
  1223                           
  1224                           ;Codigo_TT2_01.c: 132:         motorBarritas = 0;
  1225  0045  01C3               	clrf	main@motorBarritas^(0+128)
  1226  0046  01C4               	clrf	(main@motorBarritas+1)^(0+128)
  1227  0047                     l4605:	
  1228                           
  1229                           ;Codigo_TT2_01.c: 133:         motorArroz = 0;
  1230  0047  01CE               	clrf	main@motorArroz^(0+128)
  1231  0048  01CF               	clrf	(main@motorArroz+1)^(0+128)
  1232  0049                     l4607:	
  1233                           
  1234                           ;Codigo_TT2_01.c: 134:         angulo = 45;
  1235  0049  302D               	movlw	45
  1236  004A  00A6               	movwf	_angulo^(0+128)
  1237  004B  3000               	movlw	0
  1238  004C  00A7               	movwf	(_angulo^(0+128)+1)
  1239  004D                     l4609:	
  1240                           
  1241                           ;Codigo_TT2_01.c: 135:         Desactiva(1);
  1242  004D  3001               	movlw	1
  1243  004E  00F3               	movwf	Desactiva@motor
  1244  004F  3000               	movlw	0
  1245  0050  00F4               	movwf	Desactiva@motor+1
  1246  0051  160A  158A  2624  120A  118A  	fcall	_Desactiva
  1247  0056                     l4611:	
  1248                           
  1249                           ;Codigo_TT2_01.c: 136:         Desactiva(2);
  1250  0056  3002               	movlw	2
  1251  0057  00F3               	movwf	Desactiva@motor
  1252  0058  3000               	movlw	0
  1253  0059  00F4               	movwf	Desactiva@motor+1
  1254  005A  160A  158A  2624  120A  118A  	fcall	_Desactiva
  1255  005F                     l4613:	
  1256                           
  1257                           ;Codigo_TT2_01.c: 137:         Desactiva(3);
  1258  005F  3003               	movlw	3
  1259  0060  00F3               	movwf	Desactiva@motor
  1260  0061  3000               	movlw	0
  1261  0062  00F4               	movwf	Desactiva@motor+1
  1262  0063  160A  158A  2624  120A  118A  	fcall	_Desactiva
  1263  0068                     l4615:	
  1264                           
  1265                           ;Codigo_TT2_01.c: 138:         RC0 = 1;
  1266  0068  1283               	bcf	3,5	;RP0=0, select bank0
  1267  0069  1303               	bcf	3,6	;RP1=0, select bank0
  1268  006A  1407               	bsf	7,0	;volatile
  1269  006B                     l4617:	
  1270                           
  1271                           ;Codigo_TT2_01.c: 139:         RC1 = 1;
  1272  006B  1487               	bsf	7,1	;volatile
  1273  006C                     l4619:	
  1274                           
  1275                           ;Codigo_TT2_01.c: 140:         auxiliar = 0;
  1276  006C  01E6               	clrf	_auxiliar
  1277  006D  01E7               	clrf	_auxiliar+1
  1278                           
  1279                           ;Codigo_TT2_01.c: 141:         if(creditos == 0) Menu1();
  1280  006E  1683               	bsf	3,5	;RP0=1, select bank1
  1281  006F  1303               	bcf	3,6	;RP1=0, select bank1
  1282  0070  0823               	movf	(_creditos+3)^(0+128),w
  1283  0071  1283               	bcf	3,5	;RP0=0, select bank0
  1284  0072  1303               	bcf	3,6	;RP1=0, select bank0
  1285  0073  00A3               	movwf	___fleq@ff1+3
  1286  0074  1683               	bsf	3,5	;RP0=1, select bank1
  1287  0075  1303               	bcf	3,6	;RP1=0, select bank1
  1288  0076  0822               	movf	(_creditos+2)^(0+128),w
  1289  0077  1283               	bcf	3,5	;RP0=0, select bank0
  1290  0078  1303               	bcf	3,6	;RP1=0, select bank0
  1291  0079  00A2               	movwf	___fleq@ff1+2
  1292  007A  1683               	bsf	3,5	;RP0=1, select bank1
  1293  007B  1303               	bcf	3,6	;RP1=0, select bank1
  1294  007C  0821               	movf	(_creditos+1)^(0+128),w
  1295  007D  1283               	bcf	3,5	;RP0=0, select bank0
  1296  007E  1303               	bcf	3,6	;RP1=0, select bank0
  1297  007F  00A1               	movwf	___fleq@ff1+1
  1298  0080  1683               	bsf	3,5	;RP0=1, select bank1
  1299  0081  1303               	bcf	3,6	;RP1=0, select bank1
  1300  0082  0820               	movf	_creditos^(0+128),w
  1301  0083  1283               	bcf	3,5	;RP0=0, select bank0
  1302  0084  1303               	bcf	3,6	;RP1=0, select bank0
  1303  0085  00A0               	movwf	___fleq@ff1
  1304  0086  3000               	movlw	0
  1305  0087  00A7               	movwf	___fleq@ff2+3
  1306  0088  3000               	movlw	0
  1307  0089  00A6               	movwf	___fleq@ff2+2
  1308  008A  3000               	movlw	0
  1309  008B  00A5               	movwf	___fleq@ff2+1
  1310  008C  3000               	movlw	0
  1311  008D  00A4               	movwf	___fleq@ff2
  1312  008E  120A  118A  27AC  120A  118A  	fcall	___fleq
  1313  0093  1C03               	btfss	3,0
  1314  0094  2896               	goto	u6481
  1315  0095  2897               	goto	u6480
  1316  0096                     u6481:	
  1317  0096  289D               	goto	l4623
  1318  0097                     u6480:	
  1319  0097                     l4621:	
  1320  0097  160A  118A  252F  120A  118A  	fcall	_Menu1
  1321  009C  2B3E               	goto	l4705
  1322  009D                     l4623:	
  1323                           
  1324                           ;Codigo_TT2_01.c: 144:             Lcd_Clear();
  1325  009D  160A  118A  20A8  120A  118A  	fcall	_Lcd_Clear
  1326                           
  1327                           ;Codigo_TT2_01.c: 145:             Lcd_Set_Cursor(1,1);
  1328  00A2  01F7               	clrf	Lcd_Set_Cursor@b
  1329  00A3  0AF7               	incf	Lcd_Set_Cursor@b,f
  1330  00A4  3001               	movlw	1
  1331  00A5  160A  118A  20B5  120A  118A  	fcall	_Lcd_Set_Cursor
  1332  00AA                     l4625:	
  1333                           
  1334                           ;Codigo_TT2_01.c: 146:             Lcd_Write_String("Elija una opcion: ");
  1335  00AA  3014               	movlw	(low ((STR_1-__stringbase)| (0+32768)))& (0+255)
  1336  00AB  1283               	bcf	3,5	;RP0=0, select bank0
  1337  00AC  1303               	bcf	3,6	;RP1=0, select bank0
  1338  00AD  00A0               	movwf	Lcd_Write_String@a
  1339  00AE  3080               	movlw	128
  1340  00AF  00A1               	movwf	Lcd_Write_String@a+1
  1341  00B0  160A  158A  2774  120A  118A  	fcall	_Lcd_Write_String
  1342  00B5                     l4627:	
  1343                           
  1344                           ;Codigo_TT2_01.c: 147:             Lcd_Set_Cursor(2,2);
  1345  00B5  3002               	movlw	2
  1346  00B6  1683               	bsf	3,5	;RP0=1, select bank1
  1347  00B7  1303               	bcf	3,6	;RP1=0, select bank1
  1348  00B8  00C0               	movwf	??_main^(0+128)
  1349  00B9  0840               	movf	??_main^(0+128),w
  1350  00BA  00F7               	movwf	Lcd_Set_Cursor@b
  1351  00BB  3002               	movlw	2
  1352  00BC  160A  118A  20B5  120A  118A  	fcall	_Lcd_Set_Cursor
  1353                           
  1354                           ;Codigo_TT2_01.c: 148:             MostrarCreditos();
  1355  00C1  160A  118A  26F5  120A  118A  	fcall	_MostrarCreditos
  1356  00C6                     l4629:	
  1357                           
  1358                           ;Codigo_TT2_01.c: 150:             RC0 = 1;
  1359  00C6  1283               	bcf	3,5	;RP0=0, select bank0
  1360  00C7  1303               	bcf	3,6	;RP1=0, select bank0
  1361  00C8  1407               	bsf	7,0	;volatile
  1362  00C9                     l4631:	
  1363                           
  1364                           ;Codigo_TT2_01.c: 151:             RC1 = 1;
  1365  00C9  1487               	bsf	7,1	;volatile
  1366  00CA                     l4633:	
  1367                           
  1368                           ;Codigo_TT2_01.c: 152:             if (PORTAbits.RA1) {
  1369  00CA  1C85               	btfss	5,1	;volatile
  1370  00CB  28CD               	goto	u6491
  1371  00CC  28CE               	goto	u6490
  1372  00CD                     u6491:	
  1373  00CD  28EB               	goto	l194
  1374  00CE                     u6490:	
  1375  00CE                     l4635:	
  1376                           
  1377                           ;Codigo_TT2_01.c: 153:                 _delay((unsigned long)((25)*(8000000/4000.0)));
  1378  00CE  3041               	movlw	65
  1379  00CF  1683               	bsf	3,5	;RP0=1, select bank1
  1380  00D0  1303               	bcf	3,6	;RP1=0, select bank1
  1381  00D1  00C1               	movwf	(??_main^(0+128)+1)
  1382  00D2  30ED               	movlw	237
  1383  00D3  00C0               	movwf	??_main^(0+128)
  1384  00D4                     u6827:	
  1385  00D4  0BC0               	decfsz	??_main^(0+128),f
  1386  00D5  28D4               	goto	u6827
  1387  00D6  0BC1               	decfsz	(??_main^(0+128)+1),f
  1388  00D7  28D4               	goto	u6827
  1389  00D8  28D9               	nop2
  1390  00D9                     l195:	
  1391                           ;Codigo_TT2_01.c: 154:                 while(PORTAbits.RA1);
  1392                           
  1393  00D9  1283               	bcf	3,5	;RP0=0, select bank0
  1394  00DA  1303               	bcf	3,6	;RP1=0, select bank0
  1395  00DB  1885               	btfsc	5,1	;volatile
  1396  00DC  28DE               	goto	u6501
  1397  00DD  28DF               	goto	u6500
  1398  00DE                     u6501:	
  1399  00DE  28D9               	goto	l195
  1400  00DF                     u6500:	
  1401  00DF                     l4637:	
  1402                           
  1403                           ;Codigo_TT2_01.c: 155:                 _delay((unsigned long)((25)*(8000000/4000.0)));
  1404  00DF  3041               	movlw	65
  1405  00E0  1683               	bsf	3,5	;RP0=1, select bank1
  1406  00E1  1303               	bcf	3,6	;RP1=0, select bank1
  1407  00E2  00C1               	movwf	(??_main^(0+128)+1)
  1408  00E3  30ED               	movlw	237
  1409  00E4  00C0               	movwf	??_main^(0+128)
  1410  00E5                     u6837:	
  1411  00E5  0BC0               	decfsz	??_main^(0+128),f
  1412  00E6  28E5               	goto	u6837
  1413  00E7  0BC1               	decfsz	(??_main^(0+128)+1),f
  1414  00E8  28E5               	goto	u6837
  1415  00E9  28EA               	nop2
  1416                           
  1417                           ;Codigo_TT2_01.c: 156:                 goto Proceso;
  1418  00EA  2B56               	goto	l4709
  1419  00EB                     l194:	
  1420                           ;Codigo_TT2_01.c: 158:             else if(PORTBbits.RB7) {
  1421                           
  1422  00EB  1F86               	btfss	6,7	;volatile
  1423  00EC  28EE               	goto	u6511
  1424  00ED  28EF               	goto	u6510
  1425  00EE                     u6511:	
  1426  00EE  29FC               	goto	l200
  1427  00EF                     u6510:	
  1428  00EF                     l4641:	
  1429                           
  1430                           ;Codigo_TT2_01.c: 159:                 _delay((unsigned long)((25)*(8000000/4000.0)));
  1431  00EF  3041               	movlw	65
  1432  00F0  1683               	bsf	3,5	;RP0=1, select bank1
  1433  00F1  1303               	bcf	3,6	;RP1=0, select bank1
  1434  00F2  00C1               	movwf	(??_main^(0+128)+1)
  1435  00F3  30ED               	movlw	237
  1436  00F4  00C0               	movwf	??_main^(0+128)
  1437  00F5                     u6847:	
  1438  00F5  0BC0               	decfsz	??_main^(0+128),f
  1439  00F6  28F5               	goto	u6847
  1440  00F7  0BC1               	decfsz	(??_main^(0+128)+1),f
  1441  00F8  28F5               	goto	u6847
  1442  00F9  28FA               	nop2
  1443  00FA                     l201:	
  1444                           ;Codigo_TT2_01.c: 160:                 while(PORTBbits.RB7);
  1445                           
  1446  00FA  1283               	bcf	3,5	;RP0=0, select bank0
  1447  00FB  1303               	bcf	3,6	;RP1=0, select bank0
  1448  00FC  1B86               	btfsc	6,7	;volatile
  1449  00FD  28FF               	goto	u6521
  1450  00FE  2900               	goto	u6520
  1451  00FF                     u6521:	
  1452  00FF  28FA               	goto	l201
  1453  0100                     u6520:	
  1454  0100                     l4643:	
  1455                           
  1456                           ;Codigo_TT2_01.c: 161:                 _delay((unsigned long)((25)*(8000000/4000.0)));
  1457  0100  3041               	movlw	65
  1458  0101  1683               	bsf	3,5	;RP0=1, select bank1
  1459  0102  1303               	bcf	3,6	;RP1=0, select bank1
  1460  0103  00C1               	movwf	(??_main^(0+128)+1)
  1461  0104  30ED               	movlw	237
  1462  0105  00C0               	movwf	??_main^(0+128)
  1463  0106                     u6857:	
  1464  0106  0BC0               	decfsz	??_main^(0+128),f
  1465  0107  2906               	goto	u6857
  1466  0108  0BC1               	decfsz	(??_main^(0+128)+1),f
  1467  0109  2906               	goto	u6857
  1468  010A  290B               	nop2
  1469  010B                     l4645:	
  1470                           
  1471                           ;Codigo_TT2_01.c: 163:                 creditos_temp = (int) creditos;
  1472  010B  1683               	bsf	3,5	;RP0=1, select bank1
  1473  010C  1303               	bcf	3,6	;RP1=0, select bank1
  1474  010D  0823               	movf	(_creditos+3)^(0+128),w
  1475  010E  1283               	bcf	3,5	;RP0=0, select bank0
  1476  010F  1303               	bcf	3,6	;RP1=0, select bank0
  1477  0110  00C7               	movwf	___fltol@f1+3
  1478  0111  1683               	bsf	3,5	;RP0=1, select bank1
  1479  0112  1303               	bcf	3,6	;RP1=0, select bank1
  1480  0113  0822               	movf	(_creditos+2)^(0+128),w
  1481  0114  1283               	bcf	3,5	;RP0=0, select bank0
  1482  0115  1303               	bcf	3,6	;RP1=0, select bank0
  1483  0116  00C6               	movwf	___fltol@f1+2
  1484  0117  1683               	bsf	3,5	;RP0=1, select bank1
  1485  0118  1303               	bcf	3,6	;RP1=0, select bank1
  1486  0119  0821               	movf	(_creditos+1)^(0+128),w
  1487  011A  1283               	bcf	3,5	;RP0=0, select bank0
  1488  011B  1303               	bcf	3,6	;RP1=0, select bank0
  1489  011C  00C5               	movwf	___fltol@f1+1
  1490  011D  1683               	bsf	3,5	;RP0=1, select bank1
  1491  011E  1303               	bcf	3,6	;RP1=0, select bank1
  1492  011F  0820               	movf	_creditos^(0+128),w
  1493  0120  1283               	bcf	3,5	;RP0=0, select bank0
  1494  0121  1303               	bcf	3,6	;RP1=0, select bank0
  1495  0122  00C4               	movwf	___fltol@f1
  1496  0123  160A  118A  223D  120A  118A  	fcall	___fltol
  1497  0128  1283               	bcf	3,5	;RP0=0, select bank0
  1498  0129  1303               	bcf	3,6	;RP1=0, select bank0
  1499  012A  0845               	movf	?___fltol+1,w
  1500  012B  00EB               	movwf	_creditos_temp+1
  1501  012C  0844               	movf	?___fltol,w
  1502  012D  00EA               	movwf	_creditos_temp
  1503  012E                     l4647:	
  1504                           
  1505                           ;Codigo_TT2_01.c: 164:                 if(creditos >= 2) {
  1506  012E  1683               	bsf	3,5	;RP0=1, select bank1
  1507  012F  1303               	bcf	3,6	;RP1=0, select bank1
  1508  0130  0823               	movf	(_creditos+3)^(0+128),w
  1509  0131  1283               	bcf	3,5	;RP0=0, select bank0
  1510  0132  1303               	bcf	3,6	;RP1=0, select bank0
  1511  0133  00A3               	movwf	___flge@ff1+3
  1512  0134  1683               	bsf	3,5	;RP0=1, select bank1
  1513  0135  1303               	bcf	3,6	;RP1=0, select bank1
  1514  0136  0822               	movf	(_creditos+2)^(0+128),w
  1515  0137  1283               	bcf	3,5	;RP0=0, select bank0
  1516  0138  1303               	bcf	3,6	;RP1=0, select bank0
  1517  0139  00A2               	movwf	___flge@ff1+2
  1518  013A  1683               	bsf	3,5	;RP0=1, select bank1
  1519  013B  1303               	bcf	3,6	;RP1=0, select bank1
  1520  013C  0821               	movf	(_creditos+1)^(0+128),w
  1521  013D  1283               	bcf	3,5	;RP0=0, select bank0
  1522  013E  1303               	bcf	3,6	;RP1=0, select bank0
  1523  013F  00A1               	movwf	___flge@ff1+1
  1524  0140  1683               	bsf	3,5	;RP0=1, select bank1
  1525  0141  1303               	bcf	3,6	;RP1=0, select bank1
  1526  0142  0820               	movf	_creditos^(0+128),w
  1527  0143  1283               	bcf	3,5	;RP0=0, select bank0
  1528  0144  1303               	bcf	3,6	;RP1=0, select bank0
  1529  0145  00A0               	movwf	___flge@ff1
  1530  0146  3040               	movlw	64
  1531  0147  00A7               	movwf	___flge@ff2+3
  1532  0148  3000               	movlw	0
  1533  0149  00A6               	movwf	___flge@ff2+2
  1534  014A  3000               	movlw	0
  1535  014B  00A5               	movwf	___flge@ff2+1
  1536  014C  3000               	movlw	0
  1537  014D  00A4               	movwf	___flge@ff2
  1538  014E  160A  118A  23CF  120A  118A  	fcall	___flge
  1539  0153  1C03               	btfss	3,0
  1540  0154  2956               	goto	u6531
  1541  0155  2957               	goto	u6530
  1542  0156                     u6531:	
  1543  0156  29F6               	goto	l4665
  1544  0157                     u6530:	
  1545  0157                     l4649:	
  1546                           
  1547                           ;Codigo_TT2_01.c: 165:                     motor_temp = MotorPasos(motorBarritas, 203, 1
      +                          , 1, 1, 2);
  1548  0157  1683               	bsf	3,5	;RP0=1, select bank1
  1549  0158  1303               	bcf	3,6	;RP1=0, select bank1
  1550  0159  0844               	movf	(main@motorBarritas+1)^(0+128),w
  1551  015A  1283               	bcf	3,5	;RP0=0, select bank0
  1552  015B  1303               	bcf	3,6	;RP1=0, select bank0
  1553  015C  00A1               	movwf	MotorPasos@motor_p+1
  1554  015D  1683               	bsf	3,5	;RP0=1, select bank1
  1555  015E  1303               	bcf	3,6	;RP1=0, select bank1
  1556  015F  0843               	movf	main@motorBarritas^(0+128),w
  1557  0160  1283               	bcf	3,5	;RP0=0, select bank0
  1558  0161  1303               	bcf	3,6	;RP1=0, select bank0
  1559  0162  00A0               	movwf	MotorPasos@motor_p
  1560  0163  30CB               	movlw	203
  1561  0164  00A2               	movwf	MotorPasos@pasos
  1562  0165  3000               	movlw	0
  1563  0166  00A3               	movwf	MotorPasos@pasos+1
  1564  0167  3001               	movlw	1
  1565  0168  00A4               	movwf	MotorPasos@sentido
  1566  0169  3000               	movlw	0
  1567  016A  00A5               	movwf	MotorPasos@sentido+1
  1568  016B  3001               	movlw	1
  1569  016C  00A6               	movwf	MotorPasos@tipo
  1570  016D  3000               	movlw	0
  1571  016E  00A7               	movwf	MotorPasos@tipo+1
  1572  016F  3001               	movlw	1
  1573  0170  00A8               	movwf	MotorPasos@num
  1574  0171  3000               	movlw	0
  1575  0172  00A9               	movwf	MotorPasos@num+1
  1576  0173  3002               	movlw	2
  1577  0174  00AA               	movwf	MotorPasos@retardo
  1578  0175  3000               	movlw	0
  1579  0176  00AB               	movwf	MotorPasos@retardo+1
  1580  0177  120A  118A  2693  120A  118A  	fcall	_MotorPasos
  1581  017C  1283               	bcf	3,5	;RP0=0, select bank0
  1582  017D  1303               	bcf	3,6	;RP1=0, select bank0
  1583  017E  0821               	movf	?_MotorPasos+1,w
  1584  017F  1683               	bsf	3,5	;RP0=1, select bank1
  1585  0180  1303               	bcf	3,6	;RP1=0, select bank1
  1586  0181  00D5               	movwf	(main@motor_temp+1)^(0+128)
  1587  0182  1283               	bcf	3,5	;RP0=0, select bank0
  1588  0183  1303               	bcf	3,6	;RP1=0, select bank0
  1589  0184  0820               	movf	?_MotorPasos,w
  1590  0185  1683               	bsf	3,5	;RP0=1, select bank1
  1591  0186  1303               	bcf	3,6	;RP1=0, select bank1
  1592  0187  00D4               	movwf	main@motor_temp^(0+128)
  1593  0188                     l4651:	
  1594                           
  1595                           ;Codigo_TT2_01.c: 166:                     motorBarritas = motor_temp;
  1596  0188  0855               	movf	(main@motor_temp+1)^(0+128),w
  1597  0189  00C4               	movwf	(main@motorBarritas+1)^(0+128)
  1598  018A  0854               	movf	main@motor_temp^(0+128),w
  1599  018B  00C3               	movwf	main@motorBarritas^(0+128)
  1600  018C                     l4653:	
  1601                           
  1602                           ;Codigo_TT2_01.c: 167:                     Desactiva(1);
  1603  018C  3001               	movlw	1
  1604  018D  00F3               	movwf	Desactiva@motor
  1605  018E  3000               	movlw	0
  1606  018F  00F4               	movwf	Desactiva@motor+1
  1607  0190  160A  158A  2624  120A  118A  	fcall	_Desactiva
  1608  0195                     l4655:	
  1609                           
  1610                           ;Codigo_TT2_01.c: 168:                     creditos -= 2;
  1611  0195  3040               	movlw	64
  1612  0196  1283               	bcf	3,5	;RP0=0, select bank0
  1613  0197  1303               	bcf	3,6	;RP1=0, select bank0
  1614  0198  00B3               	movwf	___flsub@a+3
  1615  0199  3000               	movlw	0
  1616  019A  00B2               	movwf	___flsub@a+2
  1617  019B  3000               	movlw	0
  1618  019C  00B1               	movwf	___flsub@a+1
  1619  019D  3000               	movlw	0
  1620  019E  00B0               	movwf	___flsub@a
  1621  019F  1683               	bsf	3,5	;RP0=1, select bank1
  1622  01A0  1303               	bcf	3,6	;RP1=0, select bank1
  1623  01A1  0823               	movf	(_creditos+3)^(0+128),w
  1624  01A2  1283               	bcf	3,5	;RP0=0, select bank0
  1625  01A3  1303               	bcf	3,6	;RP1=0, select bank0
  1626  01A4  00B7               	movwf	___flsub@b+3
  1627  01A5  1683               	bsf	3,5	;RP0=1, select bank1
  1628  01A6  1303               	bcf	3,6	;RP1=0, select bank1
  1629  01A7  0822               	movf	(_creditos+2)^(0+128),w
  1630  01A8  1283               	bcf	3,5	;RP0=0, select bank0
  1631  01A9  1303               	bcf	3,6	;RP1=0, select bank0
  1632  01AA  00B6               	movwf	___flsub@b+2
  1633  01AB  1683               	bsf	3,5	;RP0=1, select bank1
  1634  01AC  1303               	bcf	3,6	;RP1=0, select bank1
  1635  01AD  0821               	movf	(_creditos+1)^(0+128),w
  1636  01AE  1283               	bcf	3,5	;RP0=0, select bank0
  1637  01AF  1303               	bcf	3,6	;RP1=0, select bank0
  1638  01B0  00B5               	movwf	___flsub@b+1
  1639  01B1  1683               	bsf	3,5	;RP0=1, select bank1
  1640  01B2  1303               	bcf	3,6	;RP1=0, select bank1
  1641  01B3  0820               	movf	_creditos^(0+128),w
  1642  01B4  1283               	bcf	3,5	;RP0=0, select bank0
  1643  01B5  1303               	bcf	3,6	;RP1=0, select bank0
  1644  01B6  00B4               	movwf	___flsub@b
  1645  01B7  160A  158A  2669  120A  118A  	fcall	___flsub
  1646  01BC  1283               	bcf	3,5	;RP0=0, select bank0
  1647  01BD  1303               	bcf	3,6	;RP1=0, select bank0
  1648  01BE  0833               	movf	?___flsub+3,w
  1649  01BF  1683               	bsf	3,5	;RP0=1, select bank1
  1650  01C0  1303               	bcf	3,6	;RP1=0, select bank1
  1651  01C1  00A3               	movwf	(_creditos+3)^(0+128)
  1652  01C2  1283               	bcf	3,5	;RP0=0, select bank0
  1653  01C3  1303               	bcf	3,6	;RP1=0, select bank0
  1654  01C4  0832               	movf	?___flsub+2,w
  1655  01C5  1683               	bsf	3,5	;RP0=1, select bank1
  1656  01C6  1303               	bcf	3,6	;RP1=0, select bank1
  1657  01C7  00A2               	movwf	(_creditos+2)^(0+128)
  1658  01C8  1283               	bcf	3,5	;RP0=0, select bank0
  1659  01C9  1303               	bcf	3,6	;RP1=0, select bank0
  1660  01CA  0831               	movf	?___flsub+1,w
  1661  01CB  1683               	bsf	3,5	;RP0=1, select bank1
  1662  01CC  1303               	bcf	3,6	;RP1=0, select bank1
  1663  01CD  00A1               	movwf	(_creditos+1)^(0+128)
  1664  01CE  1283               	bcf	3,5	;RP0=0, select bank0
  1665  01CF  1303               	bcf	3,6	;RP1=0, select bank0
  1666  01D0  0830               	movf	?___flsub,w
  1667  01D1  1683               	bsf	3,5	;RP0=1, select bank1
  1668  01D2  1303               	bcf	3,6	;RP1=0, select bank1
  1669  01D3  00A0               	movwf	_creditos^(0+128)
  1670  01D4                     l4657:	
  1671                           
  1672                           ;Codigo_TT2_01.c: 169:                     Lcd_Clear();
  1673  01D4  160A  118A  20A8  120A  118A  	fcall	_Lcd_Clear
  1674  01D9                     l4659:	
  1675                           
  1676                           ;Codigo_TT2_01.c: 170:                     Lcd_Set_Cursor(1,1);
  1677  01D9  01F7               	clrf	Lcd_Set_Cursor@b
  1678  01DA  0AF7               	incf	Lcd_Set_Cursor@b,f
  1679  01DB  3001               	movlw	1
  1680  01DC  160A  118A  20B5  120A  118A  	fcall	_Lcd_Set_Cursor
  1681  01E1                     l4661:	
  1682                           
  1683                           ;Codigo_TT2_01.c: 171:                     MostrarCreditos();
  1684  01E1  160A  118A  26F5  120A  118A  	fcall	_MostrarCreditos
  1685  01E6                     l4663:	
  1686                           
  1687                           ;Codigo_TT2_01.c: 172:                     _delay((unsigned long)((2000)*(8000000/4000.0
      +                          )));
  1688  01E6  3015               	movlw	21
  1689  01E7  1683               	bsf	3,5	;RP0=1, select bank1
  1690  01E8  1303               	bcf	3,6	;RP1=0, select bank1
  1691  01E9  00C2               	movwf	(??_main^(0+128)+2)
  1692  01EA  304B               	movlw	75
  1693  01EB  00C1               	movwf	(??_main^(0+128)+1)
  1694  01EC  30BD               	movlw	189
  1695  01ED  00C0               	movwf	??_main^(0+128)
  1696  01EE                     u6867:	
  1697  01EE  0BC0               	decfsz	??_main^(0+128),f
  1698  01EF  29EE               	goto	u6867
  1699  01F0  0BC1               	decfsz	(??_main^(0+128)+1),f
  1700  01F1  29EE               	goto	u6867
  1701  01F2  0BC2               	decfsz	(??_main^(0+128)+2),f
  1702  01F3  29EE               	goto	u6867
  1703  01F4  29F5               	nop2
  1704                           
  1705                           ;Codigo_TT2_01.c: 173:                 }
  1706  01F5  28C6               	goto	l4629
  1707  01F6                     l4665:	
  1708  01F6  160A  118A  2341  120A  118A  	fcall	_CreditosInsuf
  1709  01FB  28C6               	goto	l4629
  1710  01FC                     l200:	
  1711                           ;Codigo_TT2_01.c: 177:             else if(PORTDbits.RD0) {
  1712                           
  1713  01FC  1C08               	btfss	8,0	;volatile
  1714  01FD  29FF               	goto	u6541
  1715  01FE  2A00               	goto	u6540
  1716  01FF                     u6541:	
  1717  01FF  2B13               	goto	l207
  1718  0200                     u6540:	
  1719  0200                     l4669:	
  1720                           
  1721                           ;Codigo_TT2_01.c: 178:                 _delay((unsigned long)((25)*(8000000/4000.0)));
  1722  0200  3041               	movlw	65
  1723  0201  1683               	bsf	3,5	;RP0=1, select bank1
  1724  0202  1303               	bcf	3,6	;RP1=0, select bank1
  1725  0203  00C1               	movwf	(??_main^(0+128)+1)
  1726  0204  30ED               	movlw	237
  1727  0205  00C0               	movwf	??_main^(0+128)
  1728  0206                     u6877:	
  1729  0206  0BC0               	decfsz	??_main^(0+128),f
  1730  0207  2A06               	goto	u6877
  1731  0208  0BC1               	decfsz	(??_main^(0+128)+1),f
  1732  0209  2A06               	goto	u6877
  1733  020A  2A0B               	nop2
  1734  020B                     l208:	
  1735                           ;Codigo_TT2_01.c: 179:                 while(PORTDbits.RD0);
  1736                           
  1737  020B  1283               	bcf	3,5	;RP0=0, select bank0
  1738  020C  1303               	bcf	3,6	;RP1=0, select bank0
  1739  020D  1808               	btfsc	8,0	;volatile
  1740  020E  2A10               	goto	u6551
  1741  020F  2A11               	goto	u6550
  1742  0210                     u6551:	
  1743  0210  2A0B               	goto	l208
  1744  0211                     u6550:	
  1745  0211                     l4671:	
  1746                           
  1747                           ;Codigo_TT2_01.c: 180:                 _delay((unsigned long)((25)*(8000000/4000.0)));
  1748  0211  3041               	movlw	65
  1749  0212  1683               	bsf	3,5	;RP0=1, select bank1
  1750  0213  1303               	bcf	3,6	;RP1=0, select bank1
  1751  0214  00C1               	movwf	(??_main^(0+128)+1)
  1752  0215  30ED               	movlw	237
  1753  0216  00C0               	movwf	??_main^(0+128)
  1754  0217                     u6887:	
  1755  0217  0BC0               	decfsz	??_main^(0+128),f
  1756  0218  2A17               	goto	u6887
  1757  0219  0BC1               	decfsz	(??_main^(0+128)+1),f
  1758  021A  2A17               	goto	u6887
  1759  021B  2A1C               	nop2
  1760  021C                     l4673:	
  1761                           
  1762                           ;Codigo_TT2_01.c: 182:                 if(creditos >= 1){
  1763  021C  1683               	bsf	3,5	;RP0=1, select bank1
  1764  021D  1303               	bcf	3,6	;RP1=0, select bank1
  1765  021E  0823               	movf	(_creditos+3)^(0+128),w
  1766  021F  1283               	bcf	3,5	;RP0=0, select bank0
  1767  0220  1303               	bcf	3,6	;RP1=0, select bank0
  1768  0221  00A3               	movwf	___flge@ff1+3
  1769  0222  1683               	bsf	3,5	;RP0=1, select bank1
  1770  0223  1303               	bcf	3,6	;RP1=0, select bank1
  1771  0224  0822               	movf	(_creditos+2)^(0+128),w
  1772  0225  1283               	bcf	3,5	;RP0=0, select bank0
  1773  0226  1303               	bcf	3,6	;RP1=0, select bank0
  1774  0227  00A2               	movwf	___flge@ff1+2
  1775  0228  1683               	bsf	3,5	;RP0=1, select bank1
  1776  0229  1303               	bcf	3,6	;RP1=0, select bank1
  1777  022A  0821               	movf	(_creditos+1)^(0+128),w
  1778  022B  1283               	bcf	3,5	;RP0=0, select bank0
  1779  022C  1303               	bcf	3,6	;RP1=0, select bank0
  1780  022D  00A1               	movwf	___flge@ff1+1
  1781  022E  1683               	bsf	3,5	;RP0=1, select bank1
  1782  022F  1303               	bcf	3,6	;RP1=0, select bank1
  1783  0230  0820               	movf	_creditos^(0+128),w
  1784  0231  1283               	bcf	3,5	;RP0=0, select bank0
  1785  0232  1303               	bcf	3,6	;RP1=0, select bank0
  1786  0233  00A0               	movwf	___flge@ff1
  1787  0234  303F               	movlw	63
  1788  0235  00A7               	movwf	___flge@ff2+3
  1789  0236  3080               	movlw	128
  1790  0237  00A6               	movwf	___flge@ff2+2
  1791  0238  3000               	movlw	0
  1792  0239  00A5               	movwf	___flge@ff2+1
  1793  023A  3000               	movlw	0
  1794  023B  00A4               	movwf	___flge@ff2
  1795  023C  160A  118A  23CF  120A  118A  	fcall	___flge
  1796  0241  1C03               	btfss	3,0
  1797  0242  2A44               	goto	u6561
  1798  0243  2A45               	goto	u6560
  1799  0244                     u6561:	
  1800  0244  29F6               	goto	l4665
  1801  0245                     u6560:	
  1802  0245                     l4675:	
  1803                           
  1804                           ;Codigo_TT2_01.c: 183:                     motor_temp = MotorPasos(motorArroz, 64, 1, 1,
      +                           2, 1);
  1805  0245  1683               	bsf	3,5	;RP0=1, select bank1
  1806  0246  1303               	bcf	3,6	;RP1=0, select bank1
  1807  0247  084F               	movf	(main@motorArroz+1)^(0+128),w
  1808  0248  1283               	bcf	3,5	;RP0=0, select bank0
  1809  0249  1303               	bcf	3,6	;RP1=0, select bank0
  1810  024A  00A1               	movwf	MotorPasos@motor_p+1
  1811  024B  1683               	bsf	3,5	;RP0=1, select bank1
  1812  024C  1303               	bcf	3,6	;RP1=0, select bank1
  1813  024D  084E               	movf	main@motorArroz^(0+128),w
  1814  024E  1283               	bcf	3,5	;RP0=0, select bank0
  1815  024F  1303               	bcf	3,6	;RP1=0, select bank0
  1816  0250  00A0               	movwf	MotorPasos@motor_p
  1817  0251  3040               	movlw	64
  1818  0252  00A2               	movwf	MotorPasos@pasos
  1819  0253  3000               	movlw	0
  1820  0254  00A3               	movwf	MotorPasos@pasos+1
  1821  0255  3001               	movlw	1
  1822  0256  00A4               	movwf	MotorPasos@sentido
  1823  0257  3000               	movlw	0
  1824  0258  00A5               	movwf	MotorPasos@sentido+1
  1825  0259  3001               	movlw	1
  1826  025A  00A6               	movwf	MotorPasos@tipo
  1827  025B  3000               	movlw	0
  1828  025C  00A7               	movwf	MotorPasos@tipo+1
  1829  025D  3002               	movlw	2
  1830  025E  00A8               	movwf	MotorPasos@num
  1831  025F  3000               	movlw	0
  1832  0260  00A9               	movwf	MotorPasos@num+1
  1833  0261  3001               	movlw	1
  1834  0262  00AA               	movwf	MotorPasos@retardo
  1835  0263  3000               	movlw	0
  1836  0264  00AB               	movwf	MotorPasos@retardo+1
  1837  0265  120A  118A  2693  120A  118A  	fcall	_MotorPasos
  1838  026A  1283               	bcf	3,5	;RP0=0, select bank0
  1839  026B  1303               	bcf	3,6	;RP1=0, select bank0
  1840  026C  0821               	movf	?_MotorPasos+1,w
  1841  026D  1683               	bsf	3,5	;RP0=1, select bank1
  1842  026E  1303               	bcf	3,6	;RP1=0, select bank1
  1843  026F  00D5               	movwf	(main@motor_temp+1)^(0+128)
  1844  0270  1283               	bcf	3,5	;RP0=0, select bank0
  1845  0271  1303               	bcf	3,6	;RP1=0, select bank0
  1846  0272  0820               	movf	?_MotorPasos,w
  1847  0273  1683               	bsf	3,5	;RP0=1, select bank1
  1848  0274  1303               	bcf	3,6	;RP1=0, select bank1
  1849  0275  00D4               	movwf	main@motor_temp^(0+128)
  1850  0276                     l4677:	
  1851                           
  1852                           ;Codigo_TT2_01.c: 184:                     motorArroz = motor_temp;
  1853  0276  0855               	movf	(main@motor_temp+1)^(0+128),w
  1854  0277  00CF               	movwf	(main@motorArroz+1)^(0+128)
  1855  0278  0854               	movf	main@motor_temp^(0+128),w
  1856  0279  00CE               	movwf	main@motorArroz^(0+128)
  1857  027A                     l4679:	
  1858                           
  1859                           ;Codigo_TT2_01.c: 185:                     _delay((unsigned long)((150)*(8000000/4000.0)
      +                          ));
  1860  027A  3002               	movlw	2
  1861  027B  1683               	bsf	3,5	;RP0=1, select bank1
  1862  027C  1303               	bcf	3,6	;RP1=0, select bank1
  1863  027D  00C2               	movwf	(??_main^(0+128)+2)
  1864  027E  3086               	movlw	134
  1865  027F  00C1               	movwf	(??_main^(0+128)+1)
  1866  0280  3098               	movlw	152
  1867  0281  00C0               	movwf	??_main^(0+128)
  1868  0282                     u6897:	
  1869  0282  0BC0               	decfsz	??_main^(0+128),f
  1870  0283  2A82               	goto	u6897
  1871  0284  0BC1               	decfsz	(??_main^(0+128)+1),f
  1872  0285  2A82               	goto	u6897
  1873  0286  0BC2               	decfsz	(??_main^(0+128)+2),f
  1874  0287  2A82               	goto	u6897
  1875  0288  0000               	nop
  1876                           
  1877                           ;Codigo_TT2_01.c: 186:                     motor_temp = MotorPasos(motorArroz, 64, 0, 1,
      +                           2, 1);
  1878  0289  1683               	bsf	3,5	;RP0=1, select bank1
  1879  028A  1303               	bcf	3,6	;RP1=0, select bank1
  1880  028B  084F               	movf	(main@motorArroz+1)^(0+128),w
  1881  028C  1283               	bcf	3,5	;RP0=0, select bank0
  1882  028D  1303               	bcf	3,6	;RP1=0, select bank0
  1883  028E  00A1               	movwf	MotorPasos@motor_p+1
  1884  028F  1683               	bsf	3,5	;RP0=1, select bank1
  1885  0290  1303               	bcf	3,6	;RP1=0, select bank1
  1886  0291  084E               	movf	main@motorArroz^(0+128),w
  1887  0292  1283               	bcf	3,5	;RP0=0, select bank0
  1888  0293  1303               	bcf	3,6	;RP1=0, select bank0
  1889  0294  00A0               	movwf	MotorPasos@motor_p
  1890  0295  3040               	movlw	64
  1891  0296  00A2               	movwf	MotorPasos@pasos
  1892  0297  3000               	movlw	0
  1893  0298  00A3               	movwf	MotorPasos@pasos+1
  1894  0299  3000               	movlw	0
  1895  029A  00A4               	movwf	MotorPasos@sentido
  1896  029B  00A5               	movwf	MotorPasos@sentido+1
  1897  029C  3001               	movlw	1
  1898  029D  00A6               	movwf	MotorPasos@tipo
  1899  029E  3000               	movlw	0
  1900  029F  00A7               	movwf	MotorPasos@tipo+1
  1901  02A0  3002               	movlw	2
  1902  02A1  00A8               	movwf	MotorPasos@num
  1903  02A2  3000               	movlw	0
  1904  02A3  00A9               	movwf	MotorPasos@num+1
  1905  02A4  3001               	movlw	1
  1906  02A5  00AA               	movwf	MotorPasos@retardo
  1907  02A6  3000               	movlw	0
  1908  02A7  00AB               	movwf	MotorPasos@retardo+1
  1909  02A8  120A  118A  2693  120A  118A  	fcall	_MotorPasos
  1910  02AD  1283               	bcf	3,5	;RP0=0, select bank0
  1911  02AE  1303               	bcf	3,6	;RP1=0, select bank0
  1912  02AF  0821               	movf	?_MotorPasos+1,w
  1913  02B0  1683               	bsf	3,5	;RP0=1, select bank1
  1914  02B1  1303               	bcf	3,6	;RP1=0, select bank1
  1915  02B2  00D5               	movwf	(main@motor_temp+1)^(0+128)
  1916  02B3  1283               	bcf	3,5	;RP0=0, select bank0
  1917  02B4  1303               	bcf	3,6	;RP1=0, select bank0
  1918  02B5  0820               	movf	?_MotorPasos,w
  1919  02B6  1683               	bsf	3,5	;RP0=1, select bank1
  1920  02B7  1303               	bcf	3,6	;RP1=0, select bank1
  1921  02B8  00D4               	movwf	main@motor_temp^(0+128)
  1922  02B9                     l4681:	
  1923                           
  1924                           ;Codigo_TT2_01.c: 187:                     motorArroz = motor_temp;
  1925  02B9  0855               	movf	(main@motor_temp+1)^(0+128),w
  1926  02BA  00CF               	movwf	(main@motorArroz+1)^(0+128)
  1927  02BB  0854               	movf	main@motor_temp^(0+128),w
  1928  02BC  00CE               	movwf	main@motorArroz^(0+128)
  1929  02BD                     l4683:	
  1930                           
  1931                           ;Codigo_TT2_01.c: 188:                     Desactiva(2);
  1932  02BD  3002               	movlw	2
  1933  02BE  00F3               	movwf	Desactiva@motor
  1934  02BF  3000               	movlw	0
  1935  02C0  00F4               	movwf	Desactiva@motor+1
  1936  02C1  160A  158A  2624  120A  118A  	fcall	_Desactiva
  1937  02C6                     l4685:	
  1938                           
  1939                           ;Codigo_TT2_01.c: 189:                     creditos -= 1;
  1940  02C6  303F               	movlw	63
  1941  02C7  1283               	bcf	3,5	;RP0=0, select bank0
  1942  02C8  1303               	bcf	3,6	;RP1=0, select bank0
  1943  02C9  00B3               	movwf	___flsub@a+3
  1944  02CA  3080               	movlw	128
  1945  02CB  00B2               	movwf	___flsub@a+2
  1946  02CC  3000               	movlw	0
  1947  02CD  00B1               	movwf	___flsub@a+1
  1948  02CE  3000               	movlw	0
  1949  02CF  00B0               	movwf	___flsub@a
  1950  02D0  1683               	bsf	3,5	;RP0=1, select bank1
  1951  02D1  1303               	bcf	3,6	;RP1=0, select bank1
  1952  02D2  0823               	movf	(_creditos+3)^(0+128),w
  1953  02D3  1283               	bcf	3,5	;RP0=0, select bank0
  1954  02D4  1303               	bcf	3,6	;RP1=0, select bank0
  1955  02D5  00B7               	movwf	___flsub@b+3
  1956  02D6  1683               	bsf	3,5	;RP0=1, select bank1
  1957  02D7  1303               	bcf	3,6	;RP1=0, select bank1
  1958  02D8  0822               	movf	(_creditos+2)^(0+128),w
  1959  02D9  1283               	bcf	3,5	;RP0=0, select bank0
  1960  02DA  1303               	bcf	3,6	;RP1=0, select bank0
  1961  02DB  00B6               	movwf	___flsub@b+2
  1962  02DC  1683               	bsf	3,5	;RP0=1, select bank1
  1963  02DD  1303               	bcf	3,6	;RP1=0, select bank1
  1964  02DE  0821               	movf	(_creditos+1)^(0+128),w
  1965  02DF  1283               	bcf	3,5	;RP0=0, select bank0
  1966  02E0  1303               	bcf	3,6	;RP1=0, select bank0
  1967  02E1  00B5               	movwf	___flsub@b+1
  1968  02E2  1683               	bsf	3,5	;RP0=1, select bank1
  1969  02E3  1303               	bcf	3,6	;RP1=0, select bank1
  1970  02E4  0820               	movf	_creditos^(0+128),w
  1971  02E5  1283               	bcf	3,5	;RP0=0, select bank0
  1972  02E6  1303               	bcf	3,6	;RP1=0, select bank0
  1973  02E7  00B4               	movwf	___flsub@b
  1974  02E8  160A  158A  2669  120A  118A  	fcall	___flsub
  1975  02ED  1283               	bcf	3,5	;RP0=0, select bank0
  1976  02EE  1303               	bcf	3,6	;RP1=0, select bank0
  1977  02EF  0833               	movf	?___flsub+3,w
  1978  02F0  1683               	bsf	3,5	;RP0=1, select bank1
  1979  02F1  1303               	bcf	3,6	;RP1=0, select bank1
  1980  02F2  00A3               	movwf	(_creditos+3)^(0+128)
  1981  02F3  1283               	bcf	3,5	;RP0=0, select bank0
  1982  02F4  1303               	bcf	3,6	;RP1=0, select bank0
  1983  02F5  0832               	movf	?___flsub+2,w
  1984  02F6  1683               	bsf	3,5	;RP0=1, select bank1
  1985  02F7  1303               	bcf	3,6	;RP1=0, select bank1
  1986  02F8  00A2               	movwf	(_creditos+2)^(0+128)
  1987  02F9  1283               	bcf	3,5	;RP0=0, select bank0
  1988  02FA  1303               	bcf	3,6	;RP1=0, select bank0
  1989  02FB  0831               	movf	?___flsub+1,w
  1990  02FC  1683               	bsf	3,5	;RP0=1, select bank1
  1991  02FD  1303               	bcf	3,6	;RP1=0, select bank1
  1992  02FE  00A1               	movwf	(_creditos+1)^(0+128)
  1993  02FF  1283               	bcf	3,5	;RP0=0, select bank0
  1994  0300  1303               	bcf	3,6	;RP1=0, select bank0
  1995  0301  0830               	movf	?___flsub,w
  1996  0302  1683               	bsf	3,5	;RP0=1, select bank1
  1997  0303  1303               	bcf	3,6	;RP1=0, select bank1
  1998  0304  00A0               	movwf	_creditos^(0+128)
  1999  0305                     l4687:	
  2000                           
  2001                           ;Codigo_TT2_01.c: 190:                     Lcd_Clear();
  2002  0305  160A  118A  20A8  120A  118A  	fcall	_Lcd_Clear
  2003  030A                     l4689:	
  2004                           
  2005                           ;Codigo_TT2_01.c: 191:                     Lcd_Set_Cursor(1,1);
  2006  030A  01F7               	clrf	Lcd_Set_Cursor@b
  2007  030B  0AF7               	incf	Lcd_Set_Cursor@b,f
  2008  030C  3001               	movlw	1
  2009  030D  160A  118A  20B5  120A  118A  	fcall	_Lcd_Set_Cursor
  2010  0312  29E1               	goto	l4661
  2011  0313                     l207:	
  2012                           ;Codigo_TT2_01.c: 198:             else if(PORTDbits.RD1) {
  2013                           
  2014  0313  1C88               	btfss	8,1	;volatile
  2015  0314  2B16               	goto	u6571
  2016  0315  2B17               	goto	u6570
  2017  0316                     u6571:	
  2018  0316  28C6               	goto	l4629
  2019  0317                     u6570:	
  2020  0317                     l4699:	
  2021                           
  2022                           ;Codigo_TT2_01.c: 199:                 _delay((unsigned long)((25)*(8000000/4000.0)));
  2023  0317  3041               	movlw	65
  2024  0318  1683               	bsf	3,5	;RP0=1, select bank1
  2025  0319  1303               	bcf	3,6	;RP1=0, select bank1
  2026  031A  00C1               	movwf	(??_main^(0+128)+1)
  2027  031B  30ED               	movlw	237
  2028  031C  00C0               	movwf	??_main^(0+128)
  2029  031D                     u6907:	
  2030  031D  0BC0               	decfsz	??_main^(0+128),f
  2031  031E  2B1D               	goto	u6907
  2032  031F  0BC1               	decfsz	(??_main^(0+128)+1),f
  2033  0320  2B1D               	goto	u6907
  2034  0321  2B22               	nop2
  2035  0322                     l215:	
  2036                           ;Codigo_TT2_01.c: 200:                 while(PORTDbits.RD1);
  2037                           
  2038  0322  1283               	bcf	3,5	;RP0=0, select bank0
  2039  0323  1303               	bcf	3,6	;RP1=0, select bank0
  2040  0324  1888               	btfsc	8,1	;volatile
  2041  0325  2B27               	goto	u6581
  2042  0326  2B28               	goto	u6580
  2043  0327                     u6581:	
  2044  0327  2B22               	goto	l215
  2045  0328                     u6580:	
  2046  0328                     l4701:	
  2047                           
  2048                           ;Codigo_TT2_01.c: 201:                 _delay((unsigned long)((25)*(8000000/4000.0)));
  2049  0328  3041               	movlw	65
  2050  0329  1683               	bsf	3,5	;RP0=1, select bank1
  2051  032A  1303               	bcf	3,6	;RP1=0, select bank1
  2052  032B  00C1               	movwf	(??_main^(0+128)+1)
  2053  032C  30ED               	movlw	237
  2054  032D  00C0               	movwf	??_main^(0+128)
  2055  032E                     u6917:	
  2056  032E  0BC0               	decfsz	??_main^(0+128),f
  2057  032F  2B2E               	goto	u6917
  2058  0330  0BC1               	decfsz	(??_main^(0+128)+1),f
  2059  0331  2B2E               	goto	u6917
  2060  0332  2B33               	nop2
  2061                           
  2062                           ;Codigo_TT2_01.c: 203:                 creditos = 0;
  2063  0333  3000               	movlw	0
  2064  0334  1683               	bsf	3,5	;RP0=1, select bank1
  2065  0335  1303               	bcf	3,6	;RP1=0, select bank1
  2066  0336  00A3               	movwf	(_creditos+3)^(0+128)
  2067  0337  3000               	movlw	0
  2068  0338  00A2               	movwf	(_creditos+2)^(0+128)
  2069  0339  3000               	movlw	0
  2070  033A  00A1               	movwf	(_creditos+1)^(0+128)
  2071  033B  3000               	movlw	0
  2072  033C  00A0               	movwf	_creditos^(0+128)
  2073                           
  2074                           ;Codigo_TT2_01.c: 204:                 goto Inicio;
  2075  033D  2841               	goto	l4601
  2076  033E                     l4705:	
  2077                           
  2078                           ;Codigo_TT2_01.c: 208:         Lcd_Clear();
  2079  033E  160A  118A  20A8  120A  118A  	fcall	_Lcd_Clear
  2080                           
  2081                           ;Codigo_TT2_01.c: 209:         Lcd_Set_Cursor(1,1);
  2082  0343  01F7               	clrf	Lcd_Set_Cursor@b
  2083  0344  0AF7               	incf	Lcd_Set_Cursor@b,f
  2084  0345  3001               	movlw	1
  2085  0346  160A  118A  20B5  120A  118A  	fcall	_Lcd_Set_Cursor
  2086  034B                     l4707:	
  2087                           
  2088                           ;Codigo_TT2_01.c: 210:         Lcd_Write_String("Espere...");
  2089  034B  306E               	movlw	(low ((STR_2-__stringbase)| (0+32768)))& (0+255)
  2090  034C  1283               	bcf	3,5	;RP0=0, select bank0
  2091  034D  1303               	bcf	3,6	;RP1=0, select bank0
  2092  034E  00A0               	movwf	Lcd_Write_String@a
  2093  034F  3080               	movlw	128
  2094  0350  00A1               	movwf	Lcd_Write_String@a+1
  2095  0351  160A  158A  2774  120A  118A  	fcall	_Lcd_Write_String
  2096  0356                     l4709:	
  2097                           
  2098                           ;Codigo_TT2_01.c: 213:         motor_temp = MotorPasos_sensor(motorRecepcion, 28);
  2099  0356  1683               	bsf	3,5	;RP0=1, select bank1
  2100  0357  1303               	bcf	3,6	;RP1=0, select bank1
  2101  0358  0853               	movf	(main@motorRecepcion+1)^(0+128),w
  2102  0359  1283               	bcf	3,5	;RP0=0, select bank0
  2103  035A  1303               	bcf	3,6	;RP1=0, select bank0
  2104  035B  00D3               	movwf	MotorPasos_sensor@motor_p+1
  2105  035C  1683               	bsf	3,5	;RP0=1, select bank1
  2106  035D  1303               	bcf	3,6	;RP1=0, select bank1
  2107  035E  0852               	movf	main@motorRecepcion^(0+128),w
  2108  035F  1283               	bcf	3,5	;RP0=0, select bank0
  2109  0360  1303               	bcf	3,6	;RP1=0, select bank0
  2110  0361  00D2               	movwf	MotorPasos_sensor@motor_p
  2111  0362  301C               	movlw	28
  2112  0363  00D4               	movwf	MotorPasos_sensor@pasos
  2113  0364  3000               	movlw	0
  2114  0365  00D5               	movwf	MotorPasos_sensor@pasos+1
  2115  0366  160A  118A  25EC  120A  118A  	fcall	_MotorPasos_sensor
  2116  036B  1283               	bcf	3,5	;RP0=0, select bank0
  2117  036C  1303               	bcf	3,6	;RP1=0, select bank0
  2118  036D  0853               	movf	?_MotorPasos_sensor+1,w
  2119  036E  1683               	bsf	3,5	;RP0=1, select bank1
  2120  036F  1303               	bcf	3,6	;RP1=0, select bank1
  2121  0370  00D5               	movwf	(main@motor_temp+1)^(0+128)
  2122  0371  1283               	bcf	3,5	;RP0=0, select bank0
  2123  0372  1303               	bcf	3,6	;RP1=0, select bank0
  2124  0373  0852               	movf	?_MotorPasos_sensor,w
  2125  0374  1683               	bsf	3,5	;RP0=1, select bank1
  2126  0375  1303               	bcf	3,6	;RP1=0, select bank1
  2127  0376  00D4               	movwf	main@motor_temp^(0+128)
  2128  0377                     l4711:	
  2129                           
  2130                           ;Codigo_TT2_01.c: 214:         motorRecepcion = motor_temp;
  2131  0377  0855               	movf	(main@motor_temp+1)^(0+128),w
  2132  0378  00D3               	movwf	(main@motorRecepcion+1)^(0+128)
  2133  0379  0854               	movf	main@motor_temp^(0+128),w
  2134  037A  00D2               	movwf	main@motorRecepcion^(0+128)
  2135  037B                     l4713:	
  2136                           
  2137                           ;Codigo_TT2_01.c: 216:         _delay((unsigned long)((1500)*(8000000/4000.0)));
  2138  037B  3010               	movlw	16
  2139  037C  1683               	bsf	3,5	;RP0=1, select bank1
  2140  037D  1303               	bcf	3,6	;RP1=0, select bank1
  2141  037E  00C2               	movwf	(??_main^(0+128)+2)
  2142  037F  3039               	movlw	57
  2143  0380  00C1               	movwf	(??_main^(0+128)+1)
  2144  0381  300D               	movlw	13
  2145  0382  00C0               	movwf	??_main^(0+128)
  2146  0383                     u6927:	
  2147  0383  0BC0               	decfsz	??_main^(0+128),f
  2148  0384  2B83               	goto	u6927
  2149  0385  0BC1               	decfsz	(??_main^(0+128)+1),f
  2150  0386  2B83               	goto	u6927
  2151  0387  0BC2               	decfsz	(??_main^(0+128)+2),f
  2152  0388  2B83               	goto	u6927
  2153  0389                     l4715:	
  2154                           
  2155                           ;Codigo_TT2_01.c: 217:         peso = 0;
  2156  0389  1683               	bsf	3,5	;RP0=1, select bank1
  2157  038A  1303               	bcf	3,6	;RP1=0, select bank1
  2158  038B  01A8               	clrf	_peso^(0+128)
  2159  038C  01A9               	clrf	(_peso+1)^(0+128)
  2160  038D                     l4717:	
  2161                           
  2162                           ;Codigo_TT2_01.c: 218:         peso_temp = 0;
  2163  038D  01CA               	clrf	main@peso_temp^(0+128)
  2164  038E  01CB               	clrf	(main@peso_temp+1)^(0+128)
  2165  038F                     l4719:	
  2166                           
  2167                           ;Codigo_TT2_01.c: 219:         for(int c = 0; c<= 25; c++) {
  2168  038F  01CC               	clrf	main@c^(0+128)
  2169  0390  01CD               	clrf	(main@c+1)^(0+128)
  2170  0391                     l4721:	
  2171  0391  084D               	movf	(main@c+1)^(0+128),w
  2172  0392  3A80               	xorlw	128
  2173  0393  00FF               	movwf	btemp+1
  2174  0394  3080               	movlw	128
  2175  0395  027F               	subwf	btemp+1,w
  2176  0396  1D03               	skipz
  2177  0397  2B9A               	goto	u6595
  2178  0398  301A               	movlw	26
  2179  0399  024C               	subwf	main@c^(0+128),w
  2180  039A                     u6595:	
  2181  039A  1C03               	skipc
  2182  039B  2B9D               	goto	u6591
  2183  039C  2B9E               	goto	u6590
  2184  039D                     u6591:	
  2185  039D  2B9F               	goto	l4725
  2186  039E                     u6590:	
  2187  039E  2BC7               	goto	l220
  2188  039F                     l4725:	
  2189                           
  2190                           ;Codigo_TT2_01.c: 220:             peso_temp = Pesar();
  2191  039F  120A  158A  2009  120A  118A  	fcall	_Pesar
  2192  03A4  0874               	movf	?_Pesar+1,w
  2193  03A5  1683               	bsf	3,5	;RP0=1, select bank1
  2194  03A6  1303               	bcf	3,6	;RP1=0, select bank1
  2195  03A7  00CB               	movwf	(main@peso_temp+1)^(0+128)
  2196  03A8  0873               	movf	?_Pesar,w
  2197  03A9  00CA               	movwf	main@peso_temp^(0+128)
  2198  03AA                     l4727:	
  2199                           
  2200                           ;Codigo_TT2_01.c: 221:             if(peso_temp >= peso) peso = peso_temp;
  2201  03AA  084B               	movf	(main@peso_temp+1)^(0+128),w
  2202  03AB  3A80               	xorlw	128
  2203  03AC  00C0               	movwf	??_main^(0+128)
  2204  03AD  0829               	movf	(_peso+1)^(0+128),w
  2205  03AE  3A80               	xorlw	128
  2206  03AF  0240               	subwf	??_main^(0+128),w
  2207  03B0  1D03               	skipz
  2208  03B1  2BB4               	goto	u6605
  2209  03B2  0828               	movf	_peso^(0+128),w
  2210  03B3  024A               	subwf	main@peso_temp^(0+128),w
  2211  03B4                     u6605:	
  2212  03B4  1C03               	skipc
  2213  03B5  2BB7               	goto	u6601
  2214  03B6  2BB8               	goto	u6600
  2215  03B7                     u6601:	
  2216  03B7  2BBE               	goto	l221
  2217  03B8                     u6600:	
  2218  03B8                     l4729:	
  2219  03B8  1683               	bsf	3,5	;RP0=1, select bank1
  2220  03B9  1303               	bcf	3,6	;RP1=0, select bank1
  2221  03BA  084B               	movf	(main@peso_temp+1)^(0+128),w
  2222  03BB  00A9               	movwf	(_peso+1)^(0+128)
  2223  03BC  084A               	movf	main@peso_temp^(0+128),w
  2224  03BD  00A8               	movwf	_peso^(0+128)
  2225  03BE                     l221:	
  2226                           
  2227                           ;Codigo_TT2_01.c: 223:         }
  2228  03BE  3001               	movlw	1
  2229  03BF  1683               	bsf	3,5	;RP0=1, select bank1
  2230  03C0  1303               	bcf	3,6	;RP1=0, select bank1
  2231  03C1  07CC               	addwf	main@c^(0+128),f
  2232  03C2  1803               	skipnc
  2233  03C3  0ACD               	incf	(main@c+1)^(0+128),f
  2234  03C4  3000               	movlw	0
  2235  03C5  07CD               	addwf	(main@c+1)^(0+128),f
  2236  03C6  2B91               	goto	l4721
  2237  03C7                     l220:	
  2238                           
  2239                           ;Codigo_TT2_01.c: 225:         if (PORTCbits.RC3 && (altura > 88)) {
  2240  03C7  1283               	bcf	3,5	;RP0=0, select bank0
  2241  03C8  1303               	bcf	3,6	;RP1=0, select bank0
  2242  03C9  1D87               	btfss	7,3	;volatile
  2243  03CA  2BCC               	goto	u6611
  2244  03CB  2BCD               	goto	u6610
  2245  03CC                     u6611:	
  2246  03CC  2C2D               	goto	l222
  2247  03CD                     u6610:	
  2248  03CD                     l4733:	
  2249  03CD  1683               	bsf	3,5	;RP0=1, select bank1
  2250  03CE  1303               	bcf	3,6	;RP1=0, select bank1
  2251  03CF  082B               	movf	(_altura+1)^(0+128),w
  2252  03D0  3A80               	xorlw	128
  2253  03D1  00FF               	movwf	btemp+1
  2254  03D2  3080               	movlw	128
  2255  03D3  027F               	subwf	btemp+1,w
  2256  03D4  1D03               	skipz
  2257  03D5  2BD8               	goto	u6625
  2258  03D6  3059               	movlw	89
  2259  03D7  022A               	subwf	_altura^(0+128),w
  2260  03D8                     u6625:	
  2261  03D8  1C03               	skipc
  2262  03D9  2BDB               	goto	u6621
  2263  03DA  2BDC               	goto	u6620
  2264  03DB                     u6621:	
  2265  03DB  2C2D               	goto	l222
  2266  03DC                     u6620:	
  2267  03DC                     l4735:	
  2268                           
  2269                           ;Codigo_TT2_01.c: 226:             aceptado = ((peso > 287) && (peso < 304)) && ((altura
      +                           > 90) && (altura < 194));
  2270  03DC  1683               	bsf	3,5	;RP0=1, select bank1
  2271  03DD  1303               	bcf	3,6	;RP1=0, select bank1
  2272  03DE  01C5               	clrf	_main$445^(0+128)
  2273  03DF                     l4737:	
  2274  03DF  0829               	movf	(_peso+1)^(0+128),w
  2275  03E0  3A80               	xorlw	128
  2276  03E1  00FF               	movwf	btemp+1
  2277  03E2  3081               	movlw	129
  2278  03E3  027F               	subwf	btemp+1,w
  2279  03E4  1D03               	skipz
  2280  03E5  2BE8               	goto	u6635
  2281  03E6  3020               	movlw	32
  2282  03E7  0228               	subwf	_peso^(0+128),w
  2283  03E8                     u6635:	
  2284  03E8  1C03               	skipc
  2285  03E9  2BEB               	goto	u6631
  2286  03EA  2BEC               	goto	u6630
  2287  03EB                     u6631:	
  2288  03EB  2C1D               	goto	l4747
  2289  03EC                     u6630:	
  2290  03EC                     l4739:	
  2291  03EC  1683               	bsf	3,5	;RP0=1, select bank1
  2292  03ED  1303               	bcf	3,6	;RP1=0, select bank1
  2293  03EE  0829               	movf	(_peso+1)^(0+128),w
  2294  03EF  3A80               	xorlw	128
  2295  03F0  00FF               	movwf	btemp+1
  2296  03F1  3081               	movlw	129
  2297  03F2  027F               	subwf	btemp+1,w
  2298  03F3  1D03               	skipz
  2299  03F4  2BF7               	goto	u6645
  2300  03F5  3030               	movlw	48
  2301  03F6  0228               	subwf	_peso^(0+128),w
  2302  03F7                     u6645:	
  2303  03F7  1803               	skipnc
  2304  03F8  2BFA               	goto	u6641
  2305  03F9  2BFB               	goto	u6640
  2306  03FA                     u6641:	
  2307  03FA  2C1D               	goto	l4747
  2308  03FB                     u6640:	
  2309  03FB                     l4741:	
  2310  03FB  1683               	bsf	3,5	;RP0=1, select bank1
  2311  03FC  1303               	bcf	3,6	;RP1=0, select bank1
  2312  03FD  082B               	movf	(_altura+1)^(0+128),w
  2313  03FE  3A80               	xorlw	128
  2314  03FF  00FF               	movwf	btemp+1
  2315  0400  3080               	movlw	128
  2316  0401  027F               	subwf	btemp+1,w
  2317  0402  1D03               	skipz
  2318  0403  2C06               	goto	u6655
  2319  0404  305B               	movlw	91
  2320  0405  022A               	subwf	_altura^(0+128),w
  2321  0406                     u6655:	
  2322  0406  1C03               	skipc
  2323  0407  2C09               	goto	u6651
  2324  0408  2C0A               	goto	u6650
  2325  0409                     u6651:	
  2326  0409  2C1D               	goto	l4747
  2327  040A                     u6650:	
  2328  040A                     l4743:	
  2329  040A  1683               	bsf	3,5	;RP0=1, select bank1
  2330  040B  1303               	bcf	3,6	;RP1=0, select bank1
  2331  040C  082B               	movf	(_altura+1)^(0+128),w
  2332  040D  3A80               	xorlw	128
  2333  040E  00FF               	movwf	btemp+1
  2334  040F  3080               	movlw	128
  2335  0410  027F               	subwf	btemp+1,w
  2336  0411  1D03               	skipz
  2337  0412  2C15               	goto	u6665
  2338  0413  30C2               	movlw	194
  2339  0414  022A               	subwf	_altura^(0+128),w
  2340  0415                     u6665:	
  2341  0415  1803               	skipnc
  2342  0416  2C18               	goto	u6661
  2343  0417  2C19               	goto	u6660
  2344  0418                     u6661:	
  2345  0418  2C1D               	goto	l4747
  2346  0419                     u6660:	
  2347  0419                     l4745:	
  2348  0419  1683               	bsf	3,5	;RP0=1, select bank1
  2349  041A  1303               	bcf	3,6	;RP1=0, select bank1
  2350  041B  01C5               	clrf	_main$445^(0+128)
  2351  041C  0AC5               	incf	_main$445^(0+128),f
  2352  041D                     l4747:	
  2353  041D  1683               	bsf	3,5	;RP0=1, select bank1
  2354  041E  1303               	bcf	3,6	;RP1=0, select bank1
  2355  041F  0845               	movf	_main$445^(0+128),w
  2356  0420  00C0               	movwf	??_main^(0+128)
  2357  0421  01C1               	clrf	(??_main^(0+128)+1)
  2358  0422  0840               	movf	??_main^(0+128),w
  2359  0423  00D0               	movwf	main@aceptado^(0+128)
  2360  0424  0841               	movf	(??_main+1)^(0+128),w
  2361  0425  00D1               	movwf	(main@aceptado+1)^(0+128)
  2362                           
  2363                           ;Codigo_TT2_01.c: 227:             angulo = 45;
  2364  0426  302D               	movlw	45
  2365  0427  00A6               	movwf	_angulo^(0+128)
  2366  0428  3000               	movlw	0
  2367  0429  00A7               	movwf	(_angulo^(0+128)+1)
  2368  042A                     l4749:	
  2369                           
  2370                           ;Codigo_TT2_01.c: 228:             pet = 0;
  2371  042A  01C8               	clrf	main@pet^(0+128)
  2372  042B  01C9               	clrf	(main@pet+1)^(0+128)
  2373                           
  2374                           ;Codigo_TT2_01.c: 229:         }
  2375  042C  2CF9               	goto	l4795
  2376  042D                     l222:	
  2377                           ;Codigo_TT2_01.c: 230:         else if(PORTCbits.RC3 && (altura >= 76) && (altura < 88))
      +                           {
  2378                           
  2379  042D  1283               	bcf	3,5	;RP0=0, select bank0
  2380  042E  1303               	bcf	3,6	;RP1=0, select bank0
  2381  042F  1D87               	btfss	7,3	;volatile
  2382  0430  2C32               	goto	u6671
  2383  0431  2C33               	goto	u6670
  2384  0432                     u6671:	
  2385  0432  2CA8               	goto	l4775
  2386  0433                     u6670:	
  2387  0433                     l4751:	
  2388  0433  1683               	bsf	3,5	;RP0=1, select bank1
  2389  0434  1303               	bcf	3,6	;RP1=0, select bank1
  2390  0435  082B               	movf	(_altura+1)^(0+128),w
  2391  0436  3A80               	xorlw	128
  2392  0437  00FF               	movwf	btemp+1
  2393  0438  3080               	movlw	128
  2394  0439  027F               	subwf	btemp+1,w
  2395  043A  1D03               	skipz
  2396  043B  2C3E               	goto	u6685
  2397  043C  304C               	movlw	76
  2398  043D  022A               	subwf	_altura^(0+128),w
  2399  043E                     u6685:	
  2400  043E  1C03               	skipc
  2401  043F  2C41               	goto	u6681
  2402  0440  2C42               	goto	u6680
  2403  0441                     u6681:	
  2404  0441  2CA8               	goto	l4775
  2405  0442                     u6680:	
  2406  0442                     l4753:	
  2407  0442  1683               	bsf	3,5	;RP0=1, select bank1
  2408  0443  1303               	bcf	3,6	;RP1=0, select bank1
  2409  0444  082B               	movf	(_altura+1)^(0+128),w
  2410  0445  3A80               	xorlw	128
  2411  0446  00FF               	movwf	btemp+1
  2412  0447  3080               	movlw	128
  2413  0448  027F               	subwf	btemp+1,w
  2414  0449  1D03               	skipz
  2415  044A  2C4D               	goto	u6695
  2416  044B  3058               	movlw	88
  2417  044C  022A               	subwf	_altura^(0+128),w
  2418  044D                     u6695:	
  2419  044D  1803               	skipnc
  2420  044E  2C50               	goto	u6691
  2421  044F  2C51               	goto	u6690
  2422  0450                     u6691:	
  2423  0450  2CA8               	goto	l4775
  2424  0451                     u6690:	
  2425  0451                     l4755:	
  2426                           
  2427                           ;Codigo_TT2_01.c: 231:             aceptado = ((peso > 287) && (peso < 304)) && ((altura
      +                           > 30) && (altura < 80));
  2428  0451  1683               	bsf	3,5	;RP0=1, select bank1
  2429  0452  1303               	bcf	3,6	;RP1=0, select bank1
  2430  0453  01C6               	clrf	_main$446^(0+128)
  2431  0454                     l4757:	
  2432  0454  0829               	movf	(_peso+1)^(0+128),w
  2433  0455  3A80               	xorlw	128
  2434  0456  00FF               	movwf	btemp+1
  2435  0457  3081               	movlw	129
  2436  0458  027F               	subwf	btemp+1,w
  2437  0459  1D03               	skipz
  2438  045A  2C5D               	goto	u6705
  2439  045B  3020               	movlw	32
  2440  045C  0228               	subwf	_peso^(0+128),w
  2441  045D                     u6705:	
  2442  045D  1C03               	skipc
  2443  045E  2C60               	goto	u6701
  2444  045F  2C61               	goto	u6700
  2445  0460                     u6701:	
  2446  0460  2C92               	goto	l4767
  2447  0461                     u6700:	
  2448  0461                     l4759:	
  2449  0461  1683               	bsf	3,5	;RP0=1, select bank1
  2450  0462  1303               	bcf	3,6	;RP1=0, select bank1
  2451  0463  0829               	movf	(_peso+1)^(0+128),w
  2452  0464  3A80               	xorlw	128
  2453  0465  00FF               	movwf	btemp+1
  2454  0466  3081               	movlw	129
  2455  0467  027F               	subwf	btemp+1,w
  2456  0468  1D03               	skipz
  2457  0469  2C6C               	goto	u6715
  2458  046A  3030               	movlw	48
  2459  046B  0228               	subwf	_peso^(0+128),w
  2460  046C                     u6715:	
  2461  046C  1803               	skipnc
  2462  046D  2C6F               	goto	u6711
  2463  046E  2C70               	goto	u6710
  2464  046F                     u6711:	
  2465  046F  2C92               	goto	l4767
  2466  0470                     u6710:	
  2467  0470                     l4761:	
  2468  0470  1683               	bsf	3,5	;RP0=1, select bank1
  2469  0471  1303               	bcf	3,6	;RP1=0, select bank1
  2470  0472  082B               	movf	(_altura+1)^(0+128),w
  2471  0473  3A80               	xorlw	128
  2472  0474  00FF               	movwf	btemp+1
  2473  0475  3080               	movlw	128
  2474  0476  027F               	subwf	btemp+1,w
  2475  0477  1D03               	skipz
  2476  0478  2C7B               	goto	u6725
  2477  0479  301F               	movlw	31
  2478  047A  022A               	subwf	_altura^(0+128),w
  2479  047B                     u6725:	
  2480  047B  1C03               	skipc
  2481  047C  2C7E               	goto	u6721
  2482  047D  2C7F               	goto	u6720
  2483  047E                     u6721:	
  2484  047E  2C92               	goto	l4767
  2485  047F                     u6720:	
  2486  047F                     l4763:	
  2487  047F  1683               	bsf	3,5	;RP0=1, select bank1
  2488  0480  1303               	bcf	3,6	;RP1=0, select bank1
  2489  0481  082B               	movf	(_altura+1)^(0+128),w
  2490  0482  3A80               	xorlw	128
  2491  0483  00FF               	movwf	btemp+1
  2492  0484  3080               	movlw	128
  2493  0485  027F               	subwf	btemp+1,w
  2494  0486  1D03               	skipz
  2495  0487  2C8A               	goto	u6735
  2496  0488  3050               	movlw	80
  2497  0489  022A               	subwf	_altura^(0+128),w
  2498  048A                     u6735:	
  2499  048A  1803               	skipnc
  2500  048B  2C8D               	goto	u6731
  2501  048C  2C8E               	goto	u6730
  2502  048D                     u6731:	
  2503  048D  2C92               	goto	l4767
  2504  048E                     u6730:	
  2505  048E                     l4765:	
  2506  048E  1683               	bsf	3,5	;RP0=1, select bank1
  2507  048F  1303               	bcf	3,6	;RP1=0, select bank1
  2508  0490  01C6               	clrf	_main$446^(0+128)
  2509  0491  0AC6               	incf	_main$446^(0+128),f
  2510  0492                     l4767:	
  2511  0492  1683               	bsf	3,5	;RP0=1, select bank1
  2512  0493  1303               	bcf	3,6	;RP1=0, select bank1
  2513  0494  0846               	movf	_main$446^(0+128),w
  2514  0495  00C0               	movwf	??_main^(0+128)
  2515  0496  01C1               	clrf	(??_main^(0+128)+1)
  2516  0497  0840               	movf	??_main^(0+128),w
  2517  0498  00D0               	movwf	main@aceptado^(0+128)
  2518  0499  0841               	movf	(??_main+1)^(0+128),w
  2519  049A  00D1               	movwf	(main@aceptado+1)^(0+128)
  2520  049B                     l4769:	
  2521                           
  2522                           ;Codigo_TT2_01.c: 232:             if (aceptado) angulo = 0;
  2523  049B  0850               	movf	main@aceptado^(0+128),w
  2524  049C  0451               	iorwf	(main@aceptado+1)^(0+128),w
  2525  049D  1903               	btfsc	3,2
  2526  049E  2CA0               	goto	u6741
  2527  049F  2CA1               	goto	u6740
  2528  04A0                     u6741:	
  2529  04A0  2CA3               	goto	l4773
  2530  04A1                     u6740:	
  2531  04A1                     l4771:	
  2532  04A1  01A6               	clrf	_angulo^(0+128)
  2533  04A2  01A7               	clrf	(_angulo+1)^(0+128)
  2534  04A3                     l4773:	
  2535                           
  2536                           ;Codigo_TT2_01.c: 233:             pet = 1;
  2537  04A3  3001               	movlw	1
  2538  04A4  00C8               	movwf	main@pet^(0+128)
  2539  04A5  3000               	movlw	0
  2540  04A6  00C9               	movwf	(main@pet^(0+128)+1)
  2541                           
  2542                           ;Codigo_TT2_01.c: 234:         }
  2543  04A7  2CF9               	goto	l4795
  2544  04A8                     l4775:	
  2545                           
  2546                           ;Codigo_TT2_01.c: 236:             aceptado = ((peso > 287) && (peso < 304)) && ((altura
      +                           > 30) && (altura < 80));
  2547  04A8  1683               	bsf	3,5	;RP0=1, select bank1
  2548  04A9  1303               	bcf	3,6	;RP1=0, select bank1
  2549  04AA  01C7               	clrf	_main$447^(0+128)
  2550  04AB                     l4777:	
  2551  04AB  0829               	movf	(_peso+1)^(0+128),w
  2552  04AC  3A80               	xorlw	128
  2553  04AD  00FF               	movwf	btemp+1
  2554  04AE  3081               	movlw	129
  2555  04AF  027F               	subwf	btemp+1,w
  2556  04B0  1D03               	skipz
  2557  04B1  2CB4               	goto	u6755
  2558  04B2  3020               	movlw	32
  2559  04B3  0228               	subwf	_peso^(0+128),w
  2560  04B4                     u6755:	
  2561  04B4  1C03               	skipc
  2562  04B5  2CB7               	goto	u6751
  2563  04B6  2CB8               	goto	u6750
  2564  04B7                     u6751:	
  2565  04B7  2CE9               	goto	l4787
  2566  04B8                     u6750:	
  2567  04B8                     l4779:	
  2568  04B8  1683               	bsf	3,5	;RP0=1, select bank1
  2569  04B9  1303               	bcf	3,6	;RP1=0, select bank1
  2570  04BA  0829               	movf	(_peso+1)^(0+128),w
  2571  04BB  3A80               	xorlw	128
  2572  04BC  00FF               	movwf	btemp+1
  2573  04BD  3081               	movlw	129
  2574  04BE  027F               	subwf	btemp+1,w
  2575  04BF  1D03               	skipz
  2576  04C0  2CC3               	goto	u6765
  2577  04C1  3030               	movlw	48
  2578  04C2  0228               	subwf	_peso^(0+128),w
  2579  04C3                     u6765:	
  2580  04C3  1803               	skipnc
  2581  04C4  2CC6               	goto	u6761
  2582  04C5  2CC7               	goto	u6760
  2583  04C6                     u6761:	
  2584  04C6  2CE9               	goto	l4787
  2585  04C7                     u6760:	
  2586  04C7                     l4781:	
  2587  04C7  1683               	bsf	3,5	;RP0=1, select bank1
  2588  04C8  1303               	bcf	3,6	;RP1=0, select bank1
  2589  04C9  082B               	movf	(_altura+1)^(0+128),w
  2590  04CA  3A80               	xorlw	128
  2591  04CB  00FF               	movwf	btemp+1
  2592  04CC  3080               	movlw	128
  2593  04CD  027F               	subwf	btemp+1,w
  2594  04CE  1D03               	skipz
  2595  04CF  2CD2               	goto	u6775
  2596  04D0  301F               	movlw	31
  2597  04D1  022A               	subwf	_altura^(0+128),w
  2598  04D2                     u6775:	
  2599  04D2  1C03               	skipc
  2600  04D3  2CD5               	goto	u6771
  2601  04D4  2CD6               	goto	u6770
  2602  04D5                     u6771:	
  2603  04D5  2CE9               	goto	l4787
  2604  04D6                     u6770:	
  2605  04D6                     l4783:	
  2606  04D6  1683               	bsf	3,5	;RP0=1, select bank1
  2607  04D7  1303               	bcf	3,6	;RP1=0, select bank1
  2608  04D8  082B               	movf	(_altura+1)^(0+128),w
  2609  04D9  3A80               	xorlw	128
  2610  04DA  00FF               	movwf	btemp+1
  2611  04DB  3080               	movlw	128
  2612  04DC  027F               	subwf	btemp+1,w
  2613  04DD  1D03               	skipz
  2614  04DE  2CE1               	goto	u6785
  2615  04DF  3050               	movlw	80
  2616  04E0  022A               	subwf	_altura^(0+128),w
  2617  04E1                     u6785:	
  2618  04E1  1803               	skipnc
  2619  04E2  2CE4               	goto	u6781
  2620  04E3  2CE5               	goto	u6780
  2621  04E4                     u6781:	
  2622  04E4  2CE9               	goto	l4787
  2623  04E5                     u6780:	
  2624  04E5                     l4785:	
  2625  04E5  1683               	bsf	3,5	;RP0=1, select bank1
  2626  04E6  1303               	bcf	3,6	;RP1=0, select bank1
  2627  04E7  01C7               	clrf	_main$447^(0+128)
  2628  04E8  0AC7               	incf	_main$447^(0+128),f
  2629  04E9                     l4787:	
  2630  04E9  1683               	bsf	3,5	;RP0=1, select bank1
  2631  04EA  1303               	bcf	3,6	;RP1=0, select bank1
  2632  04EB  0847               	movf	_main$447^(0+128),w
  2633  04EC  00C0               	movwf	??_main^(0+128)
  2634  04ED  01C1               	clrf	(??_main^(0+128)+1)
  2635  04EE  0840               	movf	??_main^(0+128),w
  2636  04EF  00D0               	movwf	main@aceptado^(0+128)
  2637  04F0  0841               	movf	(??_main+1)^(0+128),w
  2638  04F1  00D1               	movwf	(main@aceptado+1)^(0+128)
  2639  04F2                     l4789:	
  2640                           
  2641                           ;Codigo_TT2_01.c: 237:             if(aceptado) angulo = 0;
  2642  04F2  0850               	movf	main@aceptado^(0+128),w
  2643  04F3  0451               	iorwf	(main@aceptado+1)^(0+128),w
  2644  04F4  1903               	btfsc	3,2
  2645  04F5  2CF7               	goto	u6791
  2646  04F6  2CF8               	goto	u6790
  2647  04F7                     u6791:	
  2648  04F7  2CA3               	goto	l4773
  2649  04F8                     u6790:	
  2650  04F8  2CA1               	goto	l4771
  2651  04F9                     l4795:	
  2652                           
  2653                           ;Codigo_TT2_01.c: 254:         if(aceptado) {
  2654  04F9  0850               	movf	main@aceptado^(0+128),w
  2655  04FA  0451               	iorwf	(main@aceptado+1)^(0+128),w
  2656  04FB  1903               	btfsc	3,2
  2657  04FC  2CFE               	goto	u6801
  2658  04FD  2CFF               	goto	u6800
  2659  04FE                     u6801:	
  2660  04FE  2E1E               	goto	l4827
  2661  04FF                     u6800:	
  2662  04FF                     l4797:	
  2663                           
  2664                           ;Codigo_TT2_01.c: 256:             if(pet) creditos += 0.2;
  2665  04FF  0848               	movf	main@pet^(0+128),w
  2666  0500  0449               	iorwf	(main@pet+1)^(0+128),w
  2667  0501  1903               	btfsc	3,2
  2668  0502  2D04               	goto	u6811
  2669  0503  2D05               	goto	u6810
  2670  0504                     u6811:	
  2671  0504  2D45               	goto	l4801
  2672  0505                     u6810:	
  2673  0505                     l4799:	
  2674  0505  303E               	movlw	62
  2675  0506  1283               	bcf	3,5	;RP0=0, select bank0
  2676  0507  1303               	bcf	3,6	;RP1=0, select bank0
  2677  0508  00A3               	movwf	___fladd@b+3
  2678  0509  304C               	movlw	76
  2679  050A  00A2               	movwf	___fladd@b+2
  2680  050B  30CC               	movlw	204
  2681  050C  00A1               	movwf	___fladd@b+1
  2682  050D  30CD               	movlw	205
  2683  050E  00A0               	movwf	___fladd@b
  2684  050F  1683               	bsf	3,5	;RP0=1, select bank1
  2685  0510  1303               	bcf	3,6	;RP1=0, select bank1
  2686  0511  0823               	movf	(_creditos+3)^(0+128),w
  2687  0512  1283               	bcf	3,5	;RP0=0, select bank0
  2688  0513  1303               	bcf	3,6	;RP1=0, select bank0
  2689  0514  00A7               	movwf	___fladd@a+3
  2690  0515  1683               	bsf	3,5	;RP0=1, select bank1
  2691  0516  1303               	bcf	3,6	;RP1=0, select bank1
  2692  0517  0822               	movf	(_creditos+2)^(0+128),w
  2693  0518  1283               	bcf	3,5	;RP0=0, select bank0
  2694  0519  1303               	bcf	3,6	;RP1=0, select bank0
  2695  051A  00A6               	movwf	___fladd@a+2
  2696  051B  1683               	bsf	3,5	;RP0=1, select bank1
  2697  051C  1303               	bcf	3,6	;RP1=0, select bank1
  2698  051D  0821               	movf	(_creditos+1)^(0+128),w
  2699  051E  1283               	bcf	3,5	;RP0=0, select bank0
  2700  051F  1303               	bcf	3,6	;RP1=0, select bank0
  2701  0520  00A5               	movwf	___fladd@a+1
  2702  0521  1683               	bsf	3,5	;RP0=1, select bank1
  2703  0522  1303               	bcf	3,6	;RP1=0, select bank1
  2704  0523  0820               	movf	_creditos^(0+128),w
  2705  0524  1283               	bcf	3,5	;RP0=0, select bank0
  2706  0525  1303               	bcf	3,6	;RP1=0, select bank0
  2707  0526  00A4               	movwf	___fladd@a
  2708  0527  120A  158A  220F  120A  118A  	fcall	___fladd
  2709  052C  1283               	bcf	3,5	;RP0=0, select bank0
  2710  052D  1303               	bcf	3,6	;RP1=0, select bank0
  2711  052E  0823               	movf	?___fladd+3,w
  2712  052F  1683               	bsf	3,5	;RP0=1, select bank1
  2713  0530  1303               	bcf	3,6	;RP1=0, select bank1
  2714  0531  00A3               	movwf	(_creditos+3)^(0+128)
  2715  0532  1283               	bcf	3,5	;RP0=0, select bank0
  2716  0533  1303               	bcf	3,6	;RP1=0, select bank0
  2717  0534  0822               	movf	?___fladd+2,w
  2718  0535  1683               	bsf	3,5	;RP0=1, select bank1
  2719  0536  1303               	bcf	3,6	;RP1=0, select bank1
  2720  0537  00A2               	movwf	(_creditos+2)^(0+128)
  2721  0538  1283               	bcf	3,5	;RP0=0, select bank0
  2722  0539  1303               	bcf	3,6	;RP1=0, select bank0
  2723  053A  0821               	movf	?___fladd+1,w
  2724  053B  1683               	bsf	3,5	;RP0=1, select bank1
  2725  053C  1303               	bcf	3,6	;RP1=0, select bank1
  2726  053D  00A1               	movwf	(_creditos+1)^(0+128)
  2727  053E  1283               	bcf	3,5	;RP0=0, select bank0
  2728  053F  1303               	bcf	3,6	;RP1=0, select bank0
  2729  0540  0820               	movf	?___fladd,w
  2730  0541  1683               	bsf	3,5	;RP0=1, select bank1
  2731  0542  1303               	bcf	3,6	;RP1=0, select bank1
  2732  0543  00A0               	movwf	_creditos^(0+128)
  2733  0544  2D84               	goto	l4803
  2734  0545                     l4801:	
  2735  0545  303E               	movlw	62
  2736  0546  1283               	bcf	3,5	;RP0=0, select bank0
  2737  0547  1303               	bcf	3,6	;RP1=0, select bank0
  2738  0548  00A3               	movwf	___fladd@b+3
  2739  0549  30AB               	movlw	171
  2740  054A  00A2               	movwf	___fladd@b+2
  2741  054B  3085               	movlw	133
  2742  054C  00A1               	movwf	___fladd@b+1
  2743  054D  301F               	movlw	31
  2744  054E  00A0               	movwf	___fladd@b
  2745  054F  1683               	bsf	3,5	;RP0=1, select bank1
  2746  0550  1303               	bcf	3,6	;RP1=0, select bank1
  2747  0551  0823               	movf	(_creditos+3)^(0+128),w
  2748  0552  1283               	bcf	3,5	;RP0=0, select bank0
  2749  0553  1303               	bcf	3,6	;RP1=0, select bank0
  2750  0554  00A7               	movwf	___fladd@a+3
  2751  0555  1683               	bsf	3,5	;RP0=1, select bank1
  2752  0556  1303               	bcf	3,6	;RP1=0, select bank1
  2753  0557  0822               	movf	(_creditos+2)^(0+128),w
  2754  0558  1283               	bcf	3,5	;RP0=0, select bank0
  2755  0559  1303               	bcf	3,6	;RP1=0, select bank0
  2756  055A  00A6               	movwf	___fladd@a+2
  2757  055B  1683               	bsf	3,5	;RP0=1, select bank1
  2758  055C  1303               	bcf	3,6	;RP1=0, select bank1
  2759  055D  0821               	movf	(_creditos+1)^(0+128),w
  2760  055E  1283               	bcf	3,5	;RP0=0, select bank0
  2761  055F  1303               	bcf	3,6	;RP1=0, select bank0
  2762  0560  00A5               	movwf	___fladd@a+1
  2763  0561  1683               	bsf	3,5	;RP0=1, select bank1
  2764  0562  1303               	bcf	3,6	;RP1=0, select bank1
  2765  0563  0820               	movf	_creditos^(0+128),w
  2766  0564  1283               	bcf	3,5	;RP0=0, select bank0
  2767  0565  1303               	bcf	3,6	;RP1=0, select bank0
  2768  0566  00A4               	movwf	___fladd@a
  2769  0567  120A  158A  220F  120A  118A  	fcall	___fladd
  2770  056C  1283               	bcf	3,5	;RP0=0, select bank0
  2771  056D  1303               	bcf	3,6	;RP1=0, select bank0
  2772  056E  0823               	movf	?___fladd+3,w
  2773  056F  1683               	bsf	3,5	;RP0=1, select bank1
  2774  0570  1303               	bcf	3,6	;RP1=0, select bank1
  2775  0571  00A3               	movwf	(_creditos+3)^(0+128)
  2776  0572  1283               	bcf	3,5	;RP0=0, select bank0
  2777  0573  1303               	bcf	3,6	;RP1=0, select bank0
  2778  0574  0822               	movf	?___fladd+2,w
  2779  0575  1683               	bsf	3,5	;RP0=1, select bank1
  2780  0576  1303               	bcf	3,6	;RP1=0, select bank1
  2781  0577  00A2               	movwf	(_creditos+2)^(0+128)
  2782  0578  1283               	bcf	3,5	;RP0=0, select bank0
  2783  0579  1303               	bcf	3,6	;RP1=0, select bank0
  2784  057A  0821               	movf	?___fladd+1,w
  2785  057B  1683               	bsf	3,5	;RP0=1, select bank1
  2786  057C  1303               	bcf	3,6	;RP1=0, select bank1
  2787  057D  00A1               	movwf	(_creditos+1)^(0+128)
  2788  057E  1283               	bcf	3,5	;RP0=0, select bank0
  2789  057F  1303               	bcf	3,6	;RP1=0, select bank0
  2790  0580  0820               	movf	?___fladd,w
  2791  0581  1683               	bsf	3,5	;RP0=1, select bank1
  2792  0582  1303               	bcf	3,6	;RP1=0, select bank1
  2793  0583  00A0               	movwf	_creditos^(0+128)
  2794  0584                     l4803:	
  2795                           
  2796                           ;Codigo_TT2_01.c: 258:             Lcd_Clear();
  2797  0584  160A  118A  20A8  120A  118A  	fcall	_Lcd_Clear
  2798  0589                     l4805:	
  2799                           
  2800                           ;Codigo_TT2_01.c: 259:             Lcd_Set_Cursor(1,1);
  2801  0589  01F7               	clrf	Lcd_Set_Cursor@b
  2802  058A  0AF7               	incf	Lcd_Set_Cursor@b,f
  2803  058B  3001               	movlw	1
  2804  058C  160A  118A  20B5  120A  118A  	fcall	_Lcd_Set_Cursor
  2805  0591                     l4807:	
  2806                           
  2807                           ;Codigo_TT2_01.c: 260:             MostrarCreditos();
  2808  0591  160A  118A  26F5  120A  118A  	fcall	_MostrarCreditos
  2809  0596                     l4809:	
  2810                           
  2811                           ;Codigo_TT2_01.c: 262:             RC1 = 0;
  2812  0596  1283               	bcf	3,5	;RP0=0, select bank0
  2813  0597  1303               	bcf	3,6	;RP1=0, select bank0
  2814  0598  1087               	bcf	7,1	;volatile
  2815  0599                     l4811:	
  2816                           
  2817                           ;Codigo_TT2_01.c: 263:             motor_temp = MotorPasos(motorRecepcion, 50, 0, 1, 3, 
      +                          3);
  2818  0599  1683               	bsf	3,5	;RP0=1, select bank1
  2819  059A  1303               	bcf	3,6	;RP1=0, select bank1
  2820  059B  0853               	movf	(main@motorRecepcion+1)^(0+128),w
  2821  059C  1283               	bcf	3,5	;RP0=0, select bank0
  2822  059D  1303               	bcf	3,6	;RP1=0, select bank0
  2823  059E  00A1               	movwf	MotorPasos@motor_p+1
  2824  059F  1683               	bsf	3,5	;RP0=1, select bank1
  2825  05A0  1303               	bcf	3,6	;RP1=0, select bank1
  2826  05A1  0852               	movf	main@motorRecepcion^(0+128),w
  2827  05A2  1283               	bcf	3,5	;RP0=0, select bank0
  2828  05A3  1303               	bcf	3,6	;RP1=0, select bank0
  2829  05A4  00A0               	movwf	MotorPasos@motor_p
  2830  05A5  3032               	movlw	50
  2831  05A6  00A2               	movwf	MotorPasos@pasos
  2832  05A7  3000               	movlw	0
  2833  05A8  00A3               	movwf	MotorPasos@pasos+1
  2834  05A9  3000               	movlw	0
  2835  05AA  00A4               	movwf	MotorPasos@sentido
  2836  05AB  00A5               	movwf	MotorPasos@sentido+1
  2837  05AC  3001               	movlw	1
  2838  05AD  00A6               	movwf	MotorPasos@tipo
  2839  05AE  3000               	movlw	0
  2840  05AF  00A7               	movwf	MotorPasos@tipo+1
  2841  05B0  3003               	movlw	3
  2842  05B1  00A8               	movwf	MotorPasos@num
  2843  05B2  3000               	movlw	0
  2844  05B3  00A9               	movwf	MotorPasos@num+1
  2845  05B4  3003               	movlw	3
  2846  05B5  00AA               	movwf	MotorPasos@retardo
  2847  05B6  3000               	movlw	0
  2848  05B7  00AB               	movwf	MotorPasos@retardo+1
  2849  05B8  120A  118A  2693  120A  118A  	fcall	_MotorPasos
  2850  05BD  1283               	bcf	3,5	;RP0=0, select bank0
  2851  05BE  1303               	bcf	3,6	;RP1=0, select bank0
  2852  05BF  0821               	movf	?_MotorPasos+1,w
  2853  05C0  1683               	bsf	3,5	;RP0=1, select bank1
  2854  05C1  1303               	bcf	3,6	;RP1=0, select bank1
  2855  05C2  00D5               	movwf	(main@motor_temp+1)^(0+128)
  2856  05C3  1283               	bcf	3,5	;RP0=0, select bank0
  2857  05C4  1303               	bcf	3,6	;RP1=0, select bank0
  2858  05C5  0820               	movf	?_MotorPasos,w
  2859  05C6  1683               	bsf	3,5	;RP0=1, select bank1
  2860  05C7  1303               	bcf	3,6	;RP1=0, select bank1
  2861  05C8  00D4               	movwf	main@motor_temp^(0+128)
  2862  05C9                     l4813:	
  2863                           
  2864                           ;Codigo_TT2_01.c: 264:             motorRecepcion = motor_temp;
  2865  05C9  0855               	movf	(main@motor_temp+1)^(0+128),w
  2866  05CA  00D3               	movwf	(main@motorRecepcion+1)^(0+128)
  2867  05CB  0854               	movf	main@motor_temp^(0+128),w
  2868  05CC  00D2               	movwf	main@motorRecepcion^(0+128)
  2869  05CD                     l4815:	
  2870                           
  2871                           ;Codigo_TT2_01.c: 266:             _delay((unsigned long)((700)*(8000000/4000.0)));
  2872  05CD  3008               	movlw	8
  2873  05CE  1683               	bsf	3,5	;RP0=1, select bank1
  2874  05CF  1303               	bcf	3,6	;RP1=0, select bank1
  2875  05D0  00C2               	movwf	(??_main^(0+128)+2)
  2876  05D1  301B               	movlw	27
  2877  05D2  00C1               	movwf	(??_main^(0+128)+1)
  2878  05D3  3026               	movlw	38
  2879  05D4  00C0               	movwf	??_main^(0+128)
  2880  05D5                     u6937:	
  2881  05D5  0BC0               	decfsz	??_main^(0+128),f
  2882  05D6  2DD5               	goto	u6937
  2883  05D7  0BC1               	decfsz	(??_main^(0+128)+1),f
  2884  05D8  2DD5               	goto	u6937
  2885  05D9  0BC2               	decfsz	(??_main^(0+128)+2),f
  2886  05DA  2DD5               	goto	u6937
  2887  05DB  0000               	nop
  2888  05DC                     l4817:	
  2889                           
  2890                           ;Codigo_TT2_01.c: 267:             angulo = 45;
  2891  05DC  302D               	movlw	45
  2892  05DD  1683               	bsf	3,5	;RP0=1, select bank1
  2893  05DE  1303               	bcf	3,6	;RP1=0, select bank1
  2894  05DF  00A6               	movwf	_angulo^(0+128)
  2895  05E0  3000               	movlw	0
  2896  05E1  00A7               	movwf	(_angulo^(0+128)+1)
  2897  05E2                     l4819:	
  2898                           
  2899                           ;Codigo_TT2_01.c: 268:             motor_temp = MotorPasos(motorRecepcion, 78, 1, 1, 3, 
      +                          3);
  2900  05E2  0853               	movf	(main@motorRecepcion+1)^(0+128),w
  2901  05E3  1283               	bcf	3,5	;RP0=0, select bank0
  2902  05E4  1303               	bcf	3,6	;RP1=0, select bank0
  2903  05E5  00A1               	movwf	MotorPasos@motor_p+1
  2904  05E6  1683               	bsf	3,5	;RP0=1, select bank1
  2905  05E7  1303               	bcf	3,6	;RP1=0, select bank1
  2906  05E8  0852               	movf	main@motorRecepcion^(0+128),w
  2907  05E9  1283               	bcf	3,5	;RP0=0, select bank0
  2908  05EA  1303               	bcf	3,6	;RP1=0, select bank0
  2909  05EB  00A0               	movwf	MotorPasos@motor_p
  2910  05EC  304E               	movlw	78
  2911  05ED  00A2               	movwf	MotorPasos@pasos
  2912  05EE  3000               	movlw	0
  2913  05EF  00A3               	movwf	MotorPasos@pasos+1
  2914  05F0  3001               	movlw	1
  2915  05F1  00A4               	movwf	MotorPasos@sentido
  2916  05F2  3000               	movlw	0
  2917  05F3  00A5               	movwf	MotorPasos@sentido+1
  2918  05F4  3001               	movlw	1
  2919  05F5  00A6               	movwf	MotorPasos@tipo
  2920  05F6  3000               	movlw	0
  2921  05F7  00A7               	movwf	MotorPasos@tipo+1
  2922  05F8  3003               	movlw	3
  2923  05F9  00A8               	movwf	MotorPasos@num
  2924  05FA  3000               	movlw	0
  2925  05FB  00A9               	movwf	MotorPasos@num+1
  2926  05FC  3003               	movlw	3
  2927  05FD  00AA               	movwf	MotorPasos@retardo
  2928  05FE  3000               	movlw	0
  2929  05FF  00AB               	movwf	MotorPasos@retardo+1
  2930  0600  120A  118A  2693  120A  118A  	fcall	_MotorPasos
  2931  0605  1283               	bcf	3,5	;RP0=0, select bank0
  2932  0606  1303               	bcf	3,6	;RP1=0, select bank0
  2933  0607  0821               	movf	?_MotorPasos+1,w
  2934  0608  1683               	bsf	3,5	;RP0=1, select bank1
  2935  0609  1303               	bcf	3,6	;RP1=0, select bank1
  2936  060A  00D5               	movwf	(main@motor_temp+1)^(0+128)
  2937  060B  1283               	bcf	3,5	;RP0=0, select bank0
  2938  060C  1303               	bcf	3,6	;RP1=0, select bank0
  2939  060D  0820               	movf	?_MotorPasos,w
  2940  060E  1683               	bsf	3,5	;RP0=1, select bank1
  2941  060F  1303               	bcf	3,6	;RP1=0, select bank1
  2942  0610  00D4               	movwf	main@motor_temp^(0+128)
  2943  0611                     l4821:	
  2944  0611                     l4823:	
  2945                           
  2946                           ;Codigo_TT2_01.c: 270:             Desactiva(3);
  2947  0611  3003               	movlw	3
  2948  0612  00F3               	movwf	Desactiva@motor
  2949  0613  3000               	movlw	0
  2950  0614  00F4               	movwf	Desactiva@motor+1
  2951  0615  160A  158A  2624  120A  118A  	fcall	_Desactiva
  2952  061A                     l4825:	
  2953                           
  2954                           ;Codigo_TT2_01.c: 271:             RC1 = 1;
  2955  061A  1283               	bcf	3,5	;RP0=0, select bank0
  2956  061B  1303               	bcf	3,6	;RP1=0, select bank0
  2957  061C  1487               	bsf	7,1	;volatile
  2958                           
  2959                           ;Codigo_TT2_01.c: 272:         }
  2960  061D  2E89               	goto	l4843
  2961  061E                     l4827:	
  2962                           
  2963                           ;Codigo_TT2_01.c: 274:             Lcd_Clear();
  2964  061E  160A  118A  20A8  120A  118A  	fcall	_Lcd_Clear
  2965                           
  2966                           ;Codigo_TT2_01.c: 275:             Lcd_Set_Cursor(1,1);
  2967  0623  01F7               	clrf	Lcd_Set_Cursor@b
  2968  0624  0AF7               	incf	Lcd_Set_Cursor@b,f
  2969  0625  3001               	movlw	1
  2970  0626  160A  118A  20B5  120A  118A  	fcall	_Lcd_Set_Cursor
  2971  062B                     l4829:	
  2972                           
  2973                           ;Codigo_TT2_01.c: 276:             Lcd_Write_String("rechazado: ");
  2974  062B  3035               	movlw	(low ((STR_3-__stringbase)| (0+32768)))& (0+255)
  2975  062C  1283               	bcf	3,5	;RP0=0, select bank0
  2976  062D  1303               	bcf	3,6	;RP1=0, select bank0
  2977  062E  00A0               	movwf	Lcd_Write_String@a
  2978  062F  3080               	movlw	128
  2979  0630  00A1               	movwf	Lcd_Write_String@a+1
  2980  0631  160A  158A  2774  120A  118A  	fcall	_Lcd_Write_String
  2981  0636                     l4831:	
  2982                           
  2983                           ;Codigo_TT2_01.c: 277:             alerta = 1;
  2984  0636  3001               	movlw	1
  2985  0637  1683               	bsf	3,5	;RP0=1, select bank1
  2986  0638  1303               	bcf	3,6	;RP1=0, select bank1
  2987  0639  00A4               	movwf	_alerta^(0+128)
  2988  063A  3000               	movlw	0
  2989  063B  00A5               	movwf	(_alerta^(0+128)+1)
  2990  063C                     l4833:	
  2991                           
  2992                           ;Codigo_TT2_01.c: 278:             motor_temp = MotorPasos(motorRecepcion, 28, 1, 1, 3, 
      +                          2);
  2993  063C  0853               	movf	(main@motorRecepcion+1)^(0+128),w
  2994  063D  1283               	bcf	3,5	;RP0=0, select bank0
  2995  063E  1303               	bcf	3,6	;RP1=0, select bank0
  2996  063F  00A1               	movwf	MotorPasos@motor_p+1
  2997  0640  1683               	bsf	3,5	;RP0=1, select bank1
  2998  0641  1303               	bcf	3,6	;RP1=0, select bank1
  2999  0642  0852               	movf	main@motorRecepcion^(0+128),w
  3000  0643  1283               	bcf	3,5	;RP0=0, select bank0
  3001  0644  1303               	bcf	3,6	;RP1=0, select bank0
  3002  0645  00A0               	movwf	MotorPasos@motor_p
  3003  0646  301C               	movlw	28
  3004  0647  00A2               	movwf	MotorPasos@pasos
  3005  0648  3000               	movlw	0
  3006  0649  00A3               	movwf	MotorPasos@pasos+1
  3007  064A  3001               	movlw	1
  3008  064B  00A4               	movwf	MotorPasos@sentido
  3009  064C  3000               	movlw	0
  3010  064D  00A5               	movwf	MotorPasos@sentido+1
  3011  064E  3001               	movlw	1
  3012  064F  00A6               	movwf	MotorPasos@tipo
  3013  0650  3000               	movlw	0
  3014  0651  00A7               	movwf	MotorPasos@tipo+1
  3015  0652  3003               	movlw	3
  3016  0653  00A8               	movwf	MotorPasos@num
  3017  0654  3000               	movlw	0
  3018  0655  00A9               	movwf	MotorPasos@num+1
  3019  0656  3002               	movlw	2
  3020  0657  00AA               	movwf	MotorPasos@retardo
  3021  0658  3000               	movlw	0
  3022  0659  00AB               	movwf	MotorPasos@retardo+1
  3023  065A  120A  118A  2693  120A  118A  	fcall	_MotorPasos
  3024  065F  1283               	bcf	3,5	;RP0=0, select bank0
  3025  0660  1303               	bcf	3,6	;RP1=0, select bank0
  3026  0661  0821               	movf	?_MotorPasos+1,w
  3027  0662  1683               	bsf	3,5	;RP0=1, select bank1
  3028  0663  1303               	bcf	3,6	;RP1=0, select bank1
  3029  0664  00D5               	movwf	(main@motor_temp+1)^(0+128)
  3030  0665  1283               	bcf	3,5	;RP0=0, select bank0
  3031  0666  1303               	bcf	3,6	;RP1=0, select bank0
  3032  0667  0820               	movf	?_MotorPasos,w
  3033  0668  1683               	bsf	3,5	;RP0=1, select bank1
  3034  0669  1303               	bcf	3,6	;RP1=0, select bank1
  3035  066A  00D4               	movwf	main@motor_temp^(0+128)
  3036  066B                     l4835:	
  3037                           
  3038                           ;Codigo_TT2_01.c: 280:             Desactiva(3);
  3039  066B  3003               	movlw	3
  3040  066C  00F3               	movwf	Desactiva@motor
  3041  066D  3000               	movlw	0
  3042  066E  00F4               	movwf	Desactiva@motor+1
  3043  066F  160A  158A  2624  120A  118A  	fcall	_Desactiva
  3044  0674                     l4837:	
  3045                           
  3046                           ;Codigo_TT2_01.c: 281:             _delay((unsigned long)((1000)*(8000000/4000.0)));
  3047  0674  300B               	movlw	11
  3048  0675  1683               	bsf	3,5	;RP0=1, select bank1
  3049  0676  1303               	bcf	3,6	;RP1=0, select bank1
  3050  0677  00C2               	movwf	(??_main^(0+128)+2)
  3051  0678  3026               	movlw	38
  3052  0679  00C1               	movwf	(??_main^(0+128)+1)
  3053  067A  305D               	movlw	93
  3054  067B  00C0               	movwf	??_main^(0+128)
  3055  067C                     u6947:	
  3056  067C  0BC0               	decfsz	??_main^(0+128),f
  3057  067D  2E7C               	goto	u6947
  3058  067E  0BC1               	decfsz	(??_main^(0+128)+1),f
  3059  067F  2E7C               	goto	u6947
  3060  0680  0BC2               	decfsz	(??_main^(0+128)+2),f
  3061  0681  2E7C               	goto	u6947
  3062  0682                     l4839:	
  3063                           
  3064                           ;Codigo_TT2_01.c: 282:             alerta = 0;
  3065  0682  1683               	bsf	3,5	;RP0=1, select bank1
  3066  0683  1303               	bcf	3,6	;RP1=0, select bank1
  3067  0684  01A4               	clrf	_alerta^(0+128)
  3068  0685  01A5               	clrf	(_alerta+1)^(0+128)
  3069  0686                     l4841:	
  3070                           
  3071                           ;Codigo_TT2_01.c: 283:             RC0 = 1;
  3072  0686  1283               	bcf	3,5	;RP0=0, select bank0
  3073  0687  1303               	bcf	3,6	;RP1=0, select bank0
  3074  0688  1407               	bsf	7,0	;volatile
  3075  0689                     l4843:	
  3076                           
  3077                           ;Codigo_TT2_01.c: 285:         angulo = 45;
  3078  0689  302D               	movlw	45
  3079  068A  1683               	bsf	3,5	;RP0=1, select bank1
  3080  068B  1303               	bcf	3,6	;RP1=0, select bank1
  3081  068C  00A6               	movwf	_angulo^(0+128)
  3082  068D  3000               	movlw	0
  3083  068E  00A7               	movwf	(_angulo^(0+128)+1)
  3084  068F  2841               	goto	l4601
  3085  0690  120A  118A  2810   	ljmp	start
  3086  0693                     __end_of_main:	
  3087                           
  3088                           	psect	text1
  3089  1E69                     __ptext1:	
  3090 ;; *************** function ___flsub *****************
  3091 ;; Defined at:
  3092 ;;		line 242 in file "C:\Program Files (x86)\Microchip\xc8\v2.10\pic\sources\c90\common\sprcadd.c"
  3093 ;; Parameters:    Size  Location     Type
  3094 ;;  a               4   16[BANK0 ] void 
  3095 ;;  b               4   20[BANK0 ] void 
  3096 ;; Auto vars:     Size  Location     Type
  3097 ;;		None
  3098 ;; Return value:  Size  Location     Type
  3099 ;;                  4   16[BANK0 ] void 
  3100 ;; Registers used:
  3101 ;;		wreg, status,2, status,0, btemp+1, pclath, cstack
  3102 ;; Tracked objects:
  3103 ;;		On entry : 0/0
  3104 ;;		On exit  : 0/0
  3105 ;;		Unchanged: 0/0
  3106 ;; Data sizes:     COMMON   BANK0   BANK1   BANK3   BANK2
  3107 ;;      Params:         0       8       0       0       0
  3108 ;;      Locals:         0       0       0       0       0
  3109 ;;      Temps:          0       0       0       0       0
  3110 ;;      Totals:         0       8       0       0       0
  3111 ;;Total ram usage:        8 bytes
  3112 ;; Hardware stack levels used:    1
  3113 ;; Hardware stack levels required when called:    2
  3114 ;; This function calls:
  3115 ;;		___fladd
  3116 ;; This function is called by:
  3117 ;;		_main
  3118 ;; This function uses a non-reentrant model
  3119 ;;
  3120                           
  3121                           
  3122                           ;psect for function ___flsub
  3123  1E69                     ___flsub:	
  3124  1E69                     l4575:	
  3125                           ;incstack = 0
  3126                           ; Regs used in ___flsub: [wreg+status,2+status,0+btemp+1+pclath+cstack]
  3127                           
  3128  1E69  3080               	movlw	128
  3129  1E6A  1283               	bcf	3,5	;RP0=0, select bank0
  3130  1E6B  1303               	bcf	3,6	;RP1=0, select bank0
  3131  1E6C  06B3               	xorwf	___flsub@a+3,f
  3132  1E6D                     l4577:	
  3133  1E6D  0837               	movf	___flsub@b+3,w
  3134  1E6E  00A3               	movwf	___fladd@b+3
  3135  1E6F  0836               	movf	___flsub@b+2,w
  3136  1E70  00A2               	movwf	___fladd@b+2
  3137  1E71  0835               	movf	___flsub@b+1,w
  3138  1E72  00A1               	movwf	___fladd@b+1
  3139  1E73  0834               	movf	___flsub@b,w
  3140  1E74  00A0               	movwf	___fladd@b
  3141  1E75  0833               	movf	___flsub@a+3,w
  3142  1E76  00A7               	movwf	___fladd@a+3
  3143  1E77  0832               	movf	___flsub@a+2,w
  3144  1E78  00A6               	movwf	___fladd@a+2
  3145  1E79  0831               	movf	___flsub@a+1,w
  3146  1E7A  00A5               	movwf	___fladd@a+1
  3147  1E7B  0830               	movf	___flsub@a,w
  3148  1E7C  00A4               	movwf	___fladd@a
  3149  1E7D  120A  158A  220F  160A  158A  	fcall	___fladd
  3150  1E82  1283               	bcf	3,5	;RP0=0, select bank0
  3151  1E83  1303               	bcf	3,6	;RP1=0, select bank0
  3152  1E84  0823               	movf	?___fladd+3,w
  3153  1E85  00B3               	movwf	?___flsub+3
  3154  1E86  0822               	movf	?___fladd+2,w
  3155  1E87  00B2               	movwf	?___flsub+2
  3156  1E88  0821               	movf	?___fladd+1,w
  3157  1E89  00B1               	movwf	?___flsub+1
  3158  1E8A  0820               	movf	?___fladd,w
  3159  1E8B  00B0               	movwf	?___flsub
  3160  1E8C                     l770:	
  3161  1E8C  0008               	return
  3162  1E8D                     __end_of___flsub:	
  3163                           
  3164                           	psect	text2
  3165  0A0F                     __ptext2:	
  3166 ;; *************** function ___fladd *****************
  3167 ;; Defined at:
  3168 ;;		line 10 in file "C:\Program Files (x86)\Microchip\xc8\v2.10\pic\sources\c90\common\sprcadd.c"
  3169 ;; Parameters:    Size  Location     Type
  3170 ;;  b               4    0[BANK0 ] void 
  3171 ;;  a               4    4[BANK0 ] void 
  3172 ;; Auto vars:     Size  Location     Type
  3173 ;;  grs             1    6[COMMON] unsigned char 
  3174 ;;  bexp            1    5[COMMON] unsigned char 
  3175 ;;  aexp            1    4[COMMON] unsigned char 
  3176 ;;  signs           1    3[COMMON] unsigned char 
  3177 ;; Return value:  Size  Location     Type
  3178 ;;                  4    0[BANK0 ] unsigned char 
  3179 ;; Registers used:
  3180 ;;		wreg, status,2, status,0, btemp+1
  3181 ;; Tracked objects:
  3182 ;;		On entry : 0/0
  3183 ;;		On exit  : 0/0
  3184 ;;		Unchanged: 0/0
  3185 ;; Data sizes:     COMMON   BANK0   BANK1   BANK3   BANK2
  3186 ;;      Params:         0       8       0       0       0
  3187 ;;      Locals:         4       0       0       0       0
  3188 ;;      Temps:          0       8       0       0       0
  3189 ;;      Totals:         4      16       0       0       0
  3190 ;;Total ram usage:       20 bytes
  3191 ;; Hardware stack levels used:    1
  3192 ;; Hardware stack levels required when called:    1
  3193 ;; This function calls:
  3194 ;;		Nothing
  3195 ;; This function is called by:
  3196 ;;		_main
  3197 ;;		___flsub
  3198 ;; This function uses a non-reentrant model
  3199 ;;
  3200                           
  3201                           
  3202                           ;psect for function ___fladd
  3203  0A0F                     ___fladd:	
  3204  0A0F                     l4147:	
  3205                           ;incstack = 0
  3206                           ; Regs used in ___fladd: [wreg+status,2+status,0+btemp+1]
  3207                           
  3208  0A0F  1283               	bcf	3,5	;RP0=0, select bank0
  3209  0A10  1303               	bcf	3,6	;RP1=0, select bank0
  3210  0A11  0823               	movf	___fladd@b+3,w
  3211  0A12  3980               	andlw	128
  3212  0A13  00A8               	movwf	??___fladd
  3213  0A14  0828               	movf	??___fladd,w
  3214  0A15  00F3               	movwf	___fladd@signs
  3215  0A16                     l4149:	
  3216  0A16  0823               	movf	___fladd@b+3,w
  3217  0A17  00A8               	movwf	??___fladd
  3218  0A18  0728               	addwf	??___fladd,w
  3219  0A19  00A9               	movwf	??___fladd+1
  3220  0A1A  0829               	movf	??___fladd+1,w
  3221  0A1B  00F5               	movwf	___fladd@bexp
  3222  0A1C                     l4151:	
  3223  0A1C  1FA2               	btfss	___fladd@b+2,7
  3224  0A1D  2A1F               	goto	u5651
  3225  0A1E  2A20               	goto	u5650
  3226  0A1F                     u5651:	
  3227  0A1F  2A21               	goto	l4155
  3228  0A20                     u5650:	
  3229  0A20                     l4153:	
  3230  0A20  1475               	bsf	___fladd@bexp,0
  3231  0A21                     l4155:	
  3232  0A21  0875               	movf	___fladd@bexp,w
  3233  0A22  1903               	btfsc	3,2
  3234  0A23  2A25               	goto	u5661
  3235  0A24  2A26               	goto	u5660
  3236  0A25                     u5661:	
  3237  0A25  2A36               	goto	l4165
  3238  0A26                     u5660:	
  3239  0A26                     l4157:	
  3240  0A26  0A75               	incf	___fladd@bexp,w
  3241  0A27  1D03               	btfss	3,2
  3242  0A28  2A2A               	goto	u5671
  3243  0A29  2A2B               	goto	u5670
  3244  0A2A                     u5671:	
  3245  0A2A  2A33               	goto	l4161
  3246  0A2B                     u5670:	
  3247  0A2B                     l4159:	
  3248  0A2B  3000               	movlw	0
  3249  0A2C  00A3               	movwf	___fladd@b+3
  3250  0A2D  3000               	movlw	0
  3251  0A2E  00A2               	movwf	___fladd@b+2
  3252  0A2F  3000               	movlw	0
  3253  0A30  00A1               	movwf	___fladd@b+1
  3254  0A31  3000               	movlw	0
  3255  0A32  00A0               	movwf	___fladd@b
  3256  0A33                     l4161:	
  3257  0A33  17A2               	bsf	___fladd@b+2,7
  3258  0A34                     l4163:	
  3259  0A34  01A3               	clrf	___fladd@b+3
  3260  0A35  2A3E               	goto	l4167
  3261  0A36                     l4165:	
  3262  0A36  3000               	movlw	0
  3263  0A37  00A3               	movwf	___fladd@b+3
  3264  0A38  3000               	movlw	0
  3265  0A39  00A2               	movwf	___fladd@b+2
  3266  0A3A  3000               	movlw	0
  3267  0A3B  00A1               	movwf	___fladd@b+1
  3268  0A3C  3000               	movlw	0
  3269  0A3D  00A0               	movwf	___fladd@b
  3270  0A3E                     l4167:	
  3271  0A3E  0827               	movf	___fladd@a+3,w
  3272  0A3F  3980               	andlw	128
  3273  0A40  00A8               	movwf	??___fladd
  3274  0A41  0828               	movf	??___fladd,w
  3275  0A42  00F4               	movwf	___fladd@aexp
  3276  0A43                     l4169:	
  3277  0A43  0874               	movf	___fladd@aexp,w
  3278  0A44  0673               	xorwf	___fladd@signs,w
  3279  0A45  1903               	skipnz
  3280  0A46  2A48               	goto	u5681
  3281  0A47  2A49               	goto	u5680
  3282  0A48                     u5681:	
  3283  0A48  2A4A               	goto	l4173
  3284  0A49                     u5680:	
  3285  0A49                     l4171:	
  3286  0A49  1773               	bsf	___fladd@signs,6
  3287  0A4A                     l4173:	
  3288  0A4A  0827               	movf	___fladd@a+3,w
  3289  0A4B  00A8               	movwf	??___fladd
  3290  0A4C  0728               	addwf	??___fladd,w
  3291  0A4D  00A9               	movwf	??___fladd+1
  3292  0A4E  0829               	movf	??___fladd+1,w
  3293  0A4F  00F4               	movwf	___fladd@aexp
  3294  0A50                     l4175:	
  3295  0A50  1FA6               	btfss	___fladd@a+2,7
  3296  0A51  2A53               	goto	u5691
  3297  0A52  2A54               	goto	u5690
  3298  0A53                     u5691:	
  3299  0A53  2A55               	goto	l4179
  3300  0A54                     u5690:	
  3301  0A54                     l4177:	
  3302  0A54  1474               	bsf	___fladd@aexp,0
  3303  0A55                     l4179:	
  3304  0A55  0874               	movf	___fladd@aexp,w
  3305  0A56  1903               	btfsc	3,2
  3306  0A57  2A59               	goto	u5701
  3307  0A58  2A5A               	goto	u5700
  3308  0A59                     u5701:	
  3309  0A59  2A6A               	goto	l4189
  3310  0A5A                     u5700:	
  3311  0A5A                     l4181:	
  3312  0A5A  0A74               	incf	___fladd@aexp,w
  3313  0A5B  1D03               	btfss	3,2
  3314  0A5C  2A5E               	goto	u5711
  3315  0A5D  2A5F               	goto	u5710
  3316  0A5E                     u5711:	
  3317  0A5E  2A67               	goto	l4185
  3318  0A5F                     u5710:	
  3319  0A5F                     l4183:	
  3320  0A5F  3000               	movlw	0
  3321  0A60  00A7               	movwf	___fladd@a+3
  3322  0A61  3000               	movlw	0
  3323  0A62  00A6               	movwf	___fladd@a+2
  3324  0A63  3000               	movlw	0
  3325  0A64  00A5               	movwf	___fladd@a+1
  3326  0A65  3000               	movlw	0
  3327  0A66  00A4               	movwf	___fladd@a
  3328  0A67                     l4185:	
  3329  0A67  17A6               	bsf	___fladd@a+2,7
  3330  0A68                     l4187:	
  3331  0A68  01A7               	clrf	___fladd@a+3
  3332  0A69  2A72               	goto	l724
  3333  0A6A                     l4189:	
  3334  0A6A  3000               	movlw	0
  3335  0A6B  00A7               	movwf	___fladd@a+3
  3336  0A6C  3000               	movlw	0
  3337  0A6D  00A6               	movwf	___fladd@a+2
  3338  0A6E  3000               	movlw	0
  3339  0A6F  00A5               	movwf	___fladd@a+1
  3340  0A70  3000               	movlw	0
  3341  0A71  00A4               	movwf	___fladd@a
  3342  0A72                     l724:	
  3343  0A72  0875               	movf	___fladd@bexp,w
  3344  0A73  0274               	subwf	___fladd@aexp,w
  3345  0A74  1803               	skipnc
  3346  0A75  2A77               	goto	u5721
  3347  0A76  2A78               	goto	u5720
  3348  0A77                     u5721:	
  3349  0A77  2ABC               	goto	l4225
  3350  0A78                     u5720:	
  3351  0A78                     l4191:	
  3352  0A78  1F73               	btfss	___fladd@signs,6
  3353  0A79  2A7B               	goto	u5731
  3354  0A7A  2A7C               	goto	u5730
  3355  0A7B                     u5731:	
  3356  0A7B  2A80               	goto	l4195
  3357  0A7C                     u5730:	
  3358  0A7C                     l4193:	
  3359  0A7C  3080               	movlw	128
  3360  0A7D  00A8               	movwf	??___fladd
  3361  0A7E  0828               	movf	??___fladd,w
  3362  0A7F  06F3               	xorwf	___fladd@signs,f
  3363  0A80                     l4195:	
  3364  0A80  0875               	movf	___fladd@bexp,w
  3365  0A81  00A8               	movwf	??___fladd
  3366  0A82  0828               	movf	??___fladd,w
  3367  0A83  00F6               	movwf	___fladd@grs
  3368  0A84                     l4197:	
  3369  0A84  0874               	movf	___fladd@aexp,w
  3370  0A85  00A8               	movwf	??___fladd
  3371  0A86  0828               	movf	??___fladd,w
  3372  0A87  00F5               	movwf	___fladd@bexp
  3373  0A88                     l4199:	
  3374  0A88  0876               	movf	___fladd@grs,w
  3375  0A89  00A8               	movwf	??___fladd
  3376  0A8A  0828               	movf	??___fladd,w
  3377  0A8B  00F4               	movwf	___fladd@aexp
  3378  0A8C                     l4201:	
  3379  0A8C  0820               	movf	___fladd@b,w
  3380  0A8D  00A8               	movwf	??___fladd
  3381  0A8E  0828               	movf	??___fladd,w
  3382  0A8F  00F6               	movwf	___fladd@grs
  3383  0A90                     l4203:	
  3384  0A90  0824               	movf	___fladd@a,w
  3385  0A91  00A8               	movwf	??___fladd
  3386  0A92  0828               	movf	??___fladd,w
  3387  0A93  00A0               	movwf	___fladd@b
  3388  0A94                     l4205:	
  3389  0A94  0876               	movf	___fladd@grs,w
  3390  0A95  00A8               	movwf	??___fladd
  3391  0A96  0828               	movf	??___fladd,w
  3392  0A97  00A4               	movwf	___fladd@a
  3393  0A98                     l4207:	
  3394  0A98  0821               	movf	___fladd@b+1,w
  3395  0A99  00A8               	movwf	??___fladd
  3396  0A9A  0828               	movf	??___fladd,w
  3397  0A9B  00F6               	movwf	___fladd@grs
  3398  0A9C                     l4209:	
  3399  0A9C  0825               	movf	___fladd@a+1,w
  3400  0A9D  00A8               	movwf	??___fladd
  3401  0A9E  0828               	movf	??___fladd,w
  3402  0A9F  00A1               	movwf	___fladd@b+1
  3403  0AA0                     l4211:	
  3404  0AA0  0876               	movf	___fladd@grs,w
  3405  0AA1  00A8               	movwf	??___fladd
  3406  0AA2  0828               	movf	??___fladd,w
  3407  0AA3  00A5               	movwf	___fladd@a+1
  3408  0AA4                     l4213:	
  3409  0AA4  0822               	movf	___fladd@b+2,w
  3410  0AA5  00A8               	movwf	??___fladd
  3411  0AA6  0828               	movf	??___fladd,w
  3412  0AA7  00F6               	movwf	___fladd@grs
  3413  0AA8                     l4215:	
  3414  0AA8  0826               	movf	___fladd@a+2,w
  3415  0AA9  00A8               	movwf	??___fladd
  3416  0AAA  0828               	movf	??___fladd,w
  3417  0AAB  00A2               	movwf	___fladd@b+2
  3418  0AAC                     l4217:	
  3419  0AAC  0876               	movf	___fladd@grs,w
  3420  0AAD  00A8               	movwf	??___fladd
  3421  0AAE  0828               	movf	??___fladd,w
  3422  0AAF  00A6               	movwf	___fladd@a+2
  3423  0AB0                     l4219:	
  3424  0AB0  0823               	movf	___fladd@b+3,w
  3425  0AB1  00A8               	movwf	??___fladd
  3426  0AB2  0828               	movf	??___fladd,w
  3427  0AB3  00F6               	movwf	___fladd@grs
  3428  0AB4                     l4221:	
  3429  0AB4  0827               	movf	___fladd@a+3,w
  3430  0AB5  00A8               	movwf	??___fladd
  3431  0AB6  0828               	movf	??___fladd,w
  3432  0AB7  00A3               	movwf	___fladd@b+3
  3433  0AB8                     l4223:	
  3434  0AB8  0876               	movf	___fladd@grs,w
  3435  0AB9  00A8               	movwf	??___fladd
  3436  0ABA  0828               	movf	??___fladd,w
  3437  0ABB  00A7               	movwf	___fladd@a+3
  3438  0ABC                     l4225:	
  3439  0ABC  01F6               	clrf	___fladd@grs
  3440  0ABD                     l4227:	
  3441  0ABD  0874               	movf	___fladd@aexp,w
  3442  0ABE  00A8               	movwf	??___fladd
  3443  0ABF  01A9               	clrf	??___fladd+1
  3444  0AC0  0829               	movf	??___fladd+1,w
  3445  0AC1  00AB               	movwf	??___fladd+3
  3446  0AC2  0875               	movf	___fladd@bexp,w
  3447  0AC3  0228               	subwf	??___fladd,w
  3448  0AC4  00AA               	movwf	??___fladd+2
  3449  0AC5  1C03               	skipc
  3450  0AC6  03AB               	decf	??___fladd+3,f
  3451  0AC7  082B               	movf	??___fladd+3,w
  3452  0AC8  3A80               	xorlw	128
  3453  0AC9  00FF               	movwf	btemp+1
  3454  0ACA  3080               	movlw	128
  3455  0ACB  027F               	subwf	btemp+1,w
  3456  0ACC  1D03               	skipz
  3457  0ACD  2AD0               	goto	u5745
  3458  0ACE  301A               	movlw	26
  3459  0ACF  022A               	subwf	??___fladd+2,w
  3460  0AD0                     u5745:	
  3461  0AD0  1C03               	skipc
  3462  0AD1  2AD3               	goto	u5741
  3463  0AD2  2AD4               	goto	u5740
  3464  0AD3                     u5741:	
  3465  0AD3  2B15               	goto	l4243
  3466  0AD4                     u5740:	
  3467  0AD4                     l4229:	
  3468  0AD4  1283               	bcf	3,5	;RP0=0, select bank0
  3469  0AD5  1303               	bcf	3,6	;RP1=0, select bank0
  3470  0AD6  0823               	movf	___fladd@b+3,w
  3471  0AD7  0422               	iorwf	___fladd@b+2,w
  3472  0AD8  0421               	iorwf	___fladd@b+1,w
  3473  0AD9  0420               	iorwf	___fladd@b,w
  3474  0ADA  1D03               	skipz
  3475  0ADB  2ADD               	goto	u5751
  3476  0ADC  2ADF               	goto	u5750
  3477  0ADD                     u5751:	
  3478  0ADD  3001               	movlw	1
  3479  0ADE  2AE0               	goto	u5760
  3480  0ADF                     u5750:	
  3481  0ADF  3000               	movlw	0
  3482  0AE0                     u5760:	
  3483  0AE0  00A8               	movwf	??___fladd
  3484  0AE1  0828               	movf	??___fladd,w
  3485  0AE2  00F6               	movwf	___fladd@grs
  3486  0AE3  3000               	movlw	0
  3487  0AE4  00A3               	movwf	___fladd@b+3
  3488  0AE5  3000               	movlw	0
  3489  0AE6  00A2               	movwf	___fladd@b+2
  3490  0AE7  3000               	movlw	0
  3491  0AE8  00A1               	movwf	___fladd@b+1
  3492  0AE9  3000               	movlw	0
  3493  0AEA  00A0               	movwf	___fladd@b
  3494  0AEB  0874               	movf	___fladd@aexp,w
  3495  0AEC  00A8               	movwf	??___fladd
  3496  0AED  0828               	movf	??___fladd,w
  3497  0AEE  00F5               	movwf	___fladd@bexp
  3498  0AEF  2B1B               	goto	l728
  3499  0AF0                     l730:	
  3500  0AF0  1C76               	btfss	___fladd@grs,0
  3501  0AF1  2AF3               	goto	u5771
  3502  0AF2  2AF4               	goto	u5770
  3503  0AF3                     u5771:	
  3504  0AF3  2AFF               	goto	l4233
  3505  0AF4                     u5770:	
  3506  0AF4                     l4231:	
  3507  0AF4  0876               	movf	___fladd@grs,w
  3508  0AF5  1283               	bcf	3,5	;RP0=0, select bank0
  3509  0AF6  1303               	bcf	3,6	;RP1=0, select bank0
  3510  0AF7  00A8               	movwf	??___fladd
  3511  0AF8  1003               	clrc
  3512  0AF9  0C28               	rrf	??___fladd,w
  3513  0AFA  3801               	iorlw	1
  3514  0AFB  00A9               	movwf	??___fladd+1
  3515  0AFC  0829               	movf	??___fladd+1,w
  3516  0AFD  00F6               	movwf	___fladd@grs
  3517  0AFE  2B01               	goto	l4235
  3518  0AFF                     l4233:	
  3519  0AFF  1003               	clrc
  3520  0B00  0CF6               	rrf	___fladd@grs,f
  3521  0B01                     l4235:	
  3522  0B01  1283               	bcf	3,5	;RP0=0, select bank0
  3523  0B02  1303               	bcf	3,6	;RP1=0, select bank0
  3524  0B03  1C20               	btfss	___fladd@b,0
  3525  0B04  2B06               	goto	u5781
  3526  0B05  2B07               	goto	u5780
  3527  0B06                     u5781:	
  3528  0B06  2B08               	goto	l4239
  3529  0B07                     u5780:	
  3530  0B07                     l4237:	
  3531  0B07  17F6               	bsf	___fladd@grs,7
  3532  0B08                     l4239:	
  3533  0B08  3001               	movlw	1
  3534  0B09  00A8               	movwf	??___fladd
  3535  0B0A                     u5795:	
  3536  0B0A  0D23               	rlf	___fladd@b+3,w
  3537  0B0B  0CA3               	rrf	___fladd@b+3,f
  3538  0B0C  0CA2               	rrf	___fladd@b+2,f
  3539  0B0D  0CA1               	rrf	___fladd@b+1,f
  3540  0B0E  0CA0               	rrf	___fladd@b,f
  3541  0B0F  0BA8               	decfsz	??___fladd& (0+127),f
  3542  0B10  2B0A               	goto	u5795
  3543  0B11                     l4241:	
  3544  0B11  3001               	movlw	1
  3545  0B12  00A8               	movwf	??___fladd
  3546  0B13  0828               	movf	??___fladd,w
  3547  0B14  07F5               	addwf	___fladd@bexp,f
  3548  0B15                     l4243:	
  3549  0B15  0874               	movf	___fladd@aexp,w
  3550  0B16  0275               	subwf	___fladd@bexp,w
  3551  0B17  1C03               	skipc
  3552  0B18  2B1A               	goto	u5801
  3553  0B19  2B1B               	goto	u5800
  3554  0B1A                     u5801:	
  3555  0B1A  2AF0               	goto	l730
  3556  0B1B                     u5800:	
  3557  0B1B                     l728:	
  3558  0B1B  1B73               	btfsc	___fladd@signs,6
  3559  0B1C  2B1E               	goto	u5811
  3560  0B1D  2B1F               	goto	u5810
  3561  0B1E                     u5811:	
  3562  0B1E  2B6E               	goto	l4269
  3563  0B1F                     u5810:	
  3564  0B1F                     l4245:	
  3565  0B1F  0875               	movf	___fladd@bexp,w
  3566  0B20  1D03               	btfss	3,2
  3567  0B21  2B23               	goto	u5821
  3568  0B22  2B24               	goto	u5820
  3569  0B23                     u5821:	
  3570  0B23  2B2F               	goto	l4251
  3571  0B24                     u5820:	
  3572  0B24                     l4247:	
  3573  0B24  3000               	movlw	0
  3574  0B25  1283               	bcf	3,5	;RP0=0, select bank0
  3575  0B26  1303               	bcf	3,6	;RP1=0, select bank0
  3576  0B27  00A3               	movwf	?___fladd+3
  3577  0B28  3000               	movlw	0
  3578  0B29  00A2               	movwf	?___fladd+2
  3579  0B2A  3000               	movlw	0
  3580  0B2B  00A1               	movwf	?___fladd+1
  3581  0B2C  3000               	movlw	0
  3582  0B2D  00A0               	movwf	?___fladd
  3583  0B2E  2C9E               	goto	l737
  3584  0B2F                     l4251:	
  3585  0B2F  1283               	bcf	3,5	;RP0=0, select bank0
  3586  0B30  1303               	bcf	3,6	;RP1=0, select bank0
  3587  0B31  0824               	movf	___fladd@a,w
  3588  0B32  07A0               	addwf	___fladd@b,f
  3589  0B33  0825               	movf	___fladd@a+1,w
  3590  0B34  1103               	clrz
  3591  0B35  1803               	skipnc
  3592  0B36  3E01               	addlw	1
  3593  0B37  1903               	skipnz
  3594  0B38  2B3A               	goto	u5831
  3595  0B39  07A1               	addwf	___fladd@b+1,f
  3596  0B3A                     u5831:	
  3597  0B3A  0826               	movf	___fladd@a+2,w
  3598  0B3B  1103               	clrz
  3599  0B3C  1803               	skipnc
  3600  0B3D  3E01               	addlw	1
  3601  0B3E  1903               	skipnz
  3602  0B3F  2B41               	goto	u5832
  3603  0B40  07A2               	addwf	___fladd@b+2,f
  3604  0B41                     u5832:	
  3605  0B41  0827               	movf	___fladd@a+3,w
  3606  0B42  1103               	clrz
  3607  0B43  1803               	skipnc
  3608  0B44  3E01               	addlw	1
  3609  0B45  1903               	skipnz
  3610  0B46  2B48               	goto	u5833
  3611  0B47  07A3               	addwf	___fladd@b+3,f
  3612  0B48                     u5833:	
  3613  0B48                     l4253:	
  3614  0B48  1C23               	btfss	___fladd@b+3,0
  3615  0B49  2B4B               	goto	u5841
  3616  0B4A  2B4C               	goto	u5840
  3617  0B4B                     u5841:	
  3618  0B4B  2C24               	goto	l4303
  3619  0B4C                     u5840:	
  3620  0B4C                     l4255:	
  3621  0B4C  1C76               	btfss	___fladd@grs,0
  3622  0B4D  2B4F               	goto	u5851
  3623  0B4E  2B50               	goto	u5850
  3624  0B4F                     u5851:	
  3625  0B4F  2B59               	goto	l4259
  3626  0B50                     u5850:	
  3627  0B50                     l4257:	
  3628  0B50  0876               	movf	___fladd@grs,w
  3629  0B51  00A8               	movwf	??___fladd
  3630  0B52  1003               	clrc
  3631  0B53  0C28               	rrf	??___fladd,w
  3632  0B54  3801               	iorlw	1
  3633  0B55  00A9               	movwf	??___fladd+1
  3634  0B56  0829               	movf	??___fladd+1,w
  3635  0B57  00F6               	movwf	___fladd@grs
  3636  0B58  2B5B               	goto	l4261
  3637  0B59                     l4259:	
  3638  0B59  1003               	clrc
  3639  0B5A  0CF6               	rrf	___fladd@grs,f
  3640  0B5B                     l4261:	
  3641  0B5B  1C20               	btfss	___fladd@b,0
  3642  0B5C  2B5E               	goto	u5861
  3643  0B5D  2B5F               	goto	u5860
  3644  0B5E                     u5861:	
  3645  0B5E  2B60               	goto	l4265
  3646  0B5F                     u5860:	
  3647  0B5F                     l4263:	
  3648  0B5F  17F6               	bsf	___fladd@grs,7
  3649  0B60                     l4265:	
  3650  0B60  3001               	movlw	1
  3651  0B61  00A8               	movwf	??___fladd
  3652  0B62                     u5875:	
  3653  0B62  0D23               	rlf	___fladd@b+3,w
  3654  0B63  0CA3               	rrf	___fladd@b+3,f
  3655  0B64  0CA2               	rrf	___fladd@b+2,f
  3656  0B65  0CA1               	rrf	___fladd@b+1,f
  3657  0B66  0CA0               	rrf	___fladd@b,f
  3658  0B67  0BA8               	decfsz	??___fladd& (0+127),f
  3659  0B68  2B62               	goto	u5875
  3660  0B69                     l4267:	
  3661  0B69  3001               	movlw	1
  3662  0B6A  00A8               	movwf	??___fladd
  3663  0B6B  0828               	movf	??___fladd,w
  3664  0B6C  07F5               	addwf	___fladd@bexp,f
  3665  0B6D  2C24               	goto	l4303
  3666  0B6E                     l4269:	
  3667  0B6E  1283               	bcf	3,5	;RP0=0, select bank0
  3668  0B6F  1303               	bcf	3,6	;RP1=0, select bank0
  3669  0B70  0823               	movf	___fladd@b+3,w
  3670  0B71  3A80               	xorlw	128
  3671  0B72  00FF               	movwf	btemp+1
  3672  0B73  0827               	movf	___fladd@a+3,w
  3673  0B74  3A80               	xorlw	128
  3674  0B75  027F               	subwf	btemp+1,w
  3675  0B76  1D03               	skipz
  3676  0B77  2B82               	goto	u5883
  3677  0B78  0826               	movf	___fladd@a+2,w
  3678  0B79  0222               	subwf	___fladd@b+2,w
  3679  0B7A  1D03               	skipz
  3680  0B7B  2B82               	goto	u5883
  3681  0B7C  0825               	movf	___fladd@a+1,w
  3682  0B7D  0221               	subwf	___fladd@b+1,w
  3683  0B7E  1D03               	skipz
  3684  0B7F  2B82               	goto	u5883
  3685  0B80  0824               	movf	___fladd@a,w
  3686  0B81  0220               	subwf	___fladd@b,w
  3687  0B82                     u5883:	
  3688  0B82  1803               	skipnc
  3689  0B83  2B85               	goto	u5881
  3690  0B84  2B86               	goto	u5880
  3691  0B85                     u5881:	
  3692  0B85  2BDE               	goto	l4279
  3693  0B86                     u5880:	
  3694  0B86                     l4271:	
  3695  0B86  30FF               	movlw	255
  3696  0B87  00A8               	movwf	??___fladd
  3697  0B88  30FF               	movlw	255
  3698  0B89  00A9               	movwf	??___fladd+1
  3699  0B8A  30FF               	movlw	255
  3700  0B8B  00AA               	movwf	??___fladd+2
  3701  0B8C  30FF               	movlw	255
  3702  0B8D  00AB               	movwf	??___fladd+3
  3703  0B8E  0824               	movf	___fladd@a,w
  3704  0B8F  00AC               	movwf	??___fladd+4
  3705  0B90  0825               	movf	___fladd@a+1,w
  3706  0B91  00AD               	movwf	??___fladd+5
  3707  0B92  0826               	movf	___fladd@a+2,w
  3708  0B93  00AE               	movwf	??___fladd+6
  3709  0B94  0827               	movf	___fladd@a+3,w
  3710  0B95  00AF               	movwf	??___fladd+7
  3711  0B96  0820               	movf	___fladd@b,w
  3712  0B97  02AC               	subwf	??___fladd+4,f
  3713  0B98  0821               	movf	___fladd@b+1,w
  3714  0B99  1C03               	skipc
  3715  0B9A  0F21               	incfsz	___fladd@b+1,w
  3716  0B9B  2B9D               	goto	u5891
  3717  0B9C  2B9E               	goto	u5892
  3718  0B9D                     u5891:	
  3719  0B9D  02AD               	subwf	??___fladd+5,f
  3720  0B9E                     u5892:	
  3721  0B9E  0822               	movf	___fladd@b+2,w
  3722  0B9F  1C03               	skipc
  3723  0BA0  0F22               	incfsz	___fladd@b+2,w
  3724  0BA1  2BA3               	goto	u5893
  3725  0BA2  2BA4               	goto	u5894
  3726  0BA3                     u5893:	
  3727  0BA3  02AE               	subwf	??___fladd+6,f
  3728  0BA4                     u5894:	
  3729  0BA4  0823               	movf	___fladd@b+3,w
  3730  0BA5  1C03               	skipc
  3731  0BA6  0F23               	incfsz	___fladd@b+3,w
  3732  0BA7  2BA9               	goto	u5895
  3733  0BA8  2BAA               	goto	u5896
  3734  0BA9                     u5895:	
  3735  0BA9  02AF               	subwf	??___fladd+7,f
  3736  0BAA                     u5896:	
  3737  0BAA  082C               	movf	??___fladd+4,w
  3738  0BAB  07A8               	addwf	??___fladd,f
  3739  0BAC  082D               	movf	??___fladd+5,w
  3740  0BAD  1803               	skipnc
  3741  0BAE  0F2D               	incfsz	??___fladd+5,w
  3742  0BAF  2BB1               	goto	u5900
  3743  0BB0  2BB2               	goto	u5901
  3744  0BB1                     u5900:	
  3745  0BB1  07A9               	addwf	??___fladd+1,f
  3746  0BB2                     u5901:	
  3747  0BB2  082E               	movf	??___fladd+6,w
  3748  0BB3  1803               	skipnc
  3749  0BB4  0F2E               	incfsz	??___fladd+6,w
  3750  0BB5  2BB7               	goto	u5902
  3751  0BB6  2BB8               	goto	u5903
  3752  0BB7                     u5902:	
  3753  0BB7  07AA               	addwf	??___fladd+2,f
  3754  0BB8                     u5903:	
  3755  0BB8  082F               	movf	??___fladd+7,w
  3756  0BB9  1803               	skipnc
  3757  0BBA  0A2F               	incf	??___fladd+7,w
  3758  0BBB  07AB               	addwf	??___fladd+3,f
  3759  0BBC  082B               	movf	??___fladd+3,w
  3760  0BBD  00A3               	movwf	___fladd@b+3
  3761  0BBE  082A               	movf	??___fladd+2,w
  3762  0BBF  00A2               	movwf	___fladd@b+2
  3763  0BC0  0829               	movf	??___fladd+1,w
  3764  0BC1  00A1               	movwf	___fladd@b+1
  3765  0BC2  0828               	movf	??___fladd,w
  3766  0BC3  00A0               	movwf	___fladd@b
  3767  0BC4                     l4273:	
  3768  0BC4  3080               	movlw	128
  3769  0BC5  00A8               	movwf	??___fladd
  3770  0BC6  0828               	movf	??___fladd,w
  3771  0BC7  06F3               	xorwf	___fladd@signs,f
  3772  0BC8  09F6               	comf	___fladd@grs,f
  3773  0BC9  0AF6               	incf	___fladd@grs,f
  3774  0BCA                     l4275:	
  3775  0BCA  0876               	movf	___fladd@grs,w
  3776  0BCB  1D03               	btfss	3,2
  3777  0BCC  2BCE               	goto	u5911
  3778  0BCD  2BCF               	goto	u5910
  3779  0BCE                     u5911:	
  3780  0BCE  2BEC               	goto	l745
  3781  0BCF                     u5910:	
  3782  0BCF                     l4277:	
  3783  0BCF  3001               	movlw	1
  3784  0BD0  07A0               	addwf	___fladd@b,f
  3785  0BD1  3000               	movlw	0
  3786  0BD2  1803               	skipnc
  3787  0BD3  3001               	movlw	1
  3788  0BD4  07A1               	addwf	___fladd@b+1,f
  3789  0BD5  3000               	movlw	0
  3790  0BD6  1803               	skipnc
  3791  0BD7  3001               	movlw	1
  3792  0BD8  07A2               	addwf	___fladd@b+2,f
  3793  0BD9  3000               	movlw	0
  3794  0BDA  1803               	skipnc
  3795  0BDB  3001               	movlw	1
  3796  0BDC  07A3               	addwf	___fladd@b+3,f
  3797  0BDD  2BEC               	goto	l745
  3798  0BDE                     l4279:	
  3799  0BDE  0824               	movf	___fladd@a,w
  3800  0BDF  02A0               	subwf	___fladd@b,f
  3801  0BE0  0825               	movf	___fladd@a+1,w
  3802  0BE1  1C03               	skipc
  3803  0BE2  0F25               	incfsz	___fladd@a+1,w
  3804  0BE3  02A1               	subwf	___fladd@b+1,f
  3805  0BE4  0826               	movf	___fladd@a+2,w
  3806  0BE5  1C03               	skipc
  3807  0BE6  0F26               	incfsz	___fladd@a+2,w
  3808  0BE7  02A2               	subwf	___fladd@b+2,f
  3809  0BE8  0827               	movf	___fladd@a+3,w
  3810  0BE9  1C03               	skipc
  3811  0BEA  0F27               	incfsz	___fladd@a+3,w
  3812  0BEB  02A3               	subwf	___fladd@b+3,f
  3813  0BEC                     l745:	
  3814  0BEC  0823               	movf	___fladd@b+3,w
  3815  0BED  0422               	iorwf	___fladd@b+2,w
  3816  0BEE  0421               	iorwf	___fladd@b+1,w
  3817  0BEF  0420               	iorwf	___fladd@b,w
  3818  0BF0  1D03               	skipz
  3819  0BF1  2BF3               	goto	u5921
  3820  0BF2  2BF4               	goto	u5920
  3821  0BF3                     u5921:	
  3822  0BF3  2C20               	goto	l4301
  3823  0BF4                     u5920:	
  3824  0BF4                     l4281:	
  3825  0BF4  0876               	movf	___fladd@grs,w
  3826  0BF5  1D03               	btfss	3,2
  3827  0BF6  2BF8               	goto	u5931
  3828  0BF7  2BF9               	goto	u5930
  3829  0BF8                     u5931:	
  3830  0BF8  2C20               	goto	l4301
  3831  0BF9                     u5930:	
  3832  0BF9                     l4283:	
  3833  0BF9  3000               	movlw	0
  3834  0BFA  00A3               	movwf	?___fladd+3
  3835  0BFB  3000               	movlw	0
  3836  0BFC  00A2               	movwf	?___fladd+2
  3837  0BFD  3000               	movlw	0
  3838  0BFE  00A1               	movwf	?___fladd+1
  3839  0BFF  3000               	movlw	0
  3840  0C00  00A0               	movwf	?___fladd
  3841  0C01  2C9E               	goto	l737
  3842  0C02                     l4287:	
  3843  0C02  3001               	movlw	1
  3844  0C03  00A8               	movwf	??___fladd
  3845  0C04                     u5945:	
  3846  0C04  1003               	clrc
  3847  0C05  0DA0               	rlf	___fladd@b,f
  3848  0C06  0DA1               	rlf	___fladd@b+1,f
  3849  0C07  0DA2               	rlf	___fladd@b+2,f
  3850  0C08  0DA3               	rlf	___fladd@b+3,f
  3851  0C09  0BA8               	decfsz	??___fladd,f
  3852  0C0A  2C04               	goto	u5945
  3853  0C0B                     l4289:	
  3854  0C0B  1FF6               	btfss	___fladd@grs,7
  3855  0C0C  2C0E               	goto	u5951
  3856  0C0D  2C0F               	goto	u5950
  3857  0C0E                     u5951:	
  3858  0C0E  2C10               	goto	l749
  3859  0C0F                     u5950:	
  3860  0C0F                     l4291:	
  3861  0C0F  1420               	bsf	___fladd@b,0
  3862  0C10                     l749:	
  3863  0C10  1C76               	btfss	___fladd@grs,0
  3864  0C11  2C13               	goto	u5961
  3865  0C12  2C14               	goto	u5960
  3866  0C13                     u5961:	
  3867  0C13  2C17               	goto	l4295
  3868  0C14                     u5960:	
  3869  0C14                     l4293:	
  3870  0C14  1403               	setc
  3871  0C15  0DF6               	rlf	___fladd@grs,f
  3872  0C16  2C19               	goto	l4297
  3873  0C17                     l4295:	
  3874  0C17  1003               	clrc
  3875  0C18  0DF6               	rlf	___fladd@grs,f
  3876  0C19                     l4297:	
  3877  0C19  0875               	movf	___fladd@bexp,w
  3878  0C1A  1903               	btfsc	3,2
  3879  0C1B  2C1D               	goto	u5971
  3880  0C1C  2C1E               	goto	u5970
  3881  0C1D                     u5971:	
  3882  0C1D  2C20               	goto	l4301
  3883  0C1E                     u5970:	
  3884  0C1E                     l4299:	
  3885  0C1E  3001               	movlw	1
  3886  0C1F  02F5               	subwf	___fladd@bexp,f
  3887  0C20                     l4301:	
  3888  0C20  1FA2               	btfss	___fladd@b+2,7
  3889  0C21  2C23               	goto	u5981
  3890  0C22  2C24               	goto	u5980
  3891  0C23                     u5981:	
  3892  0C23  2C02               	goto	l4287
  3893  0C24                     u5980:	
  3894  0C24                     l4303:	
  3895  0C24  01F4               	clrf	___fladd@aexp
  3896  0C25                     l4305:	
  3897  0C25  1FF6               	btfss	___fladd@grs,7
  3898  0C26  2C28               	goto	u5991
  3899  0C27  2C29               	goto	u5990
  3900  0C28                     u5991:	
  3901  0C28  2C37               	goto	l4313
  3902  0C29                     u5990:	
  3903  0C29                     l4307:	
  3904  0C29  0876               	movf	___fladd@grs,w
  3905  0C2A  397F               	andlw	127
  3906  0C2B  1903               	btfsc	3,2
  3907  0C2C  2C2E               	goto	u6001
  3908  0C2D  2C2F               	goto	u6000
  3909  0C2E                     u6001:	
  3910  0C2E  2C32               	goto	l755
  3911  0C2F                     u6000:	
  3912  0C2F                     l4309:	
  3913  0C2F  01F4               	clrf	___fladd@aexp
  3914  0C30  0AF4               	incf	___fladd@aexp,f
  3915  0C31  2C37               	goto	l4313
  3916  0C32                     l755:	
  3917  0C32  1C20               	btfss	___fladd@b,0
  3918  0C33  2C35               	goto	u6011
  3919  0C34  2C36               	goto	u6010
  3920  0C35                     u6011:	
  3921  0C35  2C37               	goto	l4313
  3922  0C36                     u6010:	
  3923  0C36  2C2F               	goto	l4309
  3924  0C37                     l4313:	
  3925  0C37  0874               	movf	___fladd@aexp,w
  3926  0C38  1903               	btfsc	3,2
  3927  0C39  2C3B               	goto	u6021
  3928  0C3A  2C3C               	goto	u6020
  3929  0C3B                     u6021:	
  3930  0C3B  2C70               	goto	l758
  3931  0C3C                     u6020:	
  3932  0C3C                     l4315:	
  3933  0C3C  3001               	movlw	1
  3934  0C3D  07A0               	addwf	___fladd@b,f
  3935  0C3E  3000               	movlw	0
  3936  0C3F  1803               	skipnc
  3937  0C40  3001               	movlw	1
  3938  0C41  07A1               	addwf	___fladd@b+1,f
  3939  0C42  3000               	movlw	0
  3940  0C43  1803               	skipnc
  3941  0C44  3001               	movlw	1
  3942  0C45  07A2               	addwf	___fladd@b+2,f
  3943  0C46  3000               	movlw	0
  3944  0C47  1803               	skipnc
  3945  0C48  3001               	movlw	1
  3946  0C49  07A3               	addwf	___fladd@b+3,f
  3947  0C4A                     l4317:	
  3948  0C4A  1C23               	btfss	___fladd@b+3,0
  3949  0C4B  2C4D               	goto	u6031
  3950  0C4C  2C4E               	goto	u6030
  3951  0C4D                     u6031:	
  3952  0C4D  2C70               	goto	l758
  3953  0C4E                     u6030:	
  3954  0C4E                     l4319:	
  3955  0C4E  0820               	movf	___fladd@b,w
  3956  0C4F  00A8               	movwf	??___fladd
  3957  0C50  0821               	movf	___fladd@b+1,w
  3958  0C51  00A9               	movwf	??___fladd+1
  3959  0C52  0822               	movf	___fladd@b+2,w
  3960  0C53  00AA               	movwf	??___fladd+2
  3961  0C54  0823               	movf	___fladd@b+3,w
  3962  0C55  00AB               	movwf	??___fladd+3
  3963  0C56  3001               	movlw	1
  3964  0C57  00AC               	movwf	??___fladd+4
  3965  0C58                     u6045:	
  3966  0C58  0D2B               	rlf	??___fladd+3,w
  3967  0C59  0CAB               	rrf	??___fladd+3,f
  3968  0C5A  0CAA               	rrf	??___fladd+2,f
  3969  0C5B  0CA9               	rrf	??___fladd+1,f
  3970  0C5C  0CA8               	rrf	??___fladd,f
  3971  0C5D                     u6040:	
  3972  0C5D  0BAC               	decfsz	??___fladd+4,f
  3973  0C5E  2C58               	goto	u6045
  3974  0C5F  082B               	movf	??___fladd+3,w
  3975  0C60  00A3               	movwf	___fladd@b+3
  3976  0C61  082A               	movf	??___fladd+2,w
  3977  0C62  00A2               	movwf	___fladd@b+2
  3978  0C63  0829               	movf	??___fladd+1,w
  3979  0C64  00A1               	movwf	___fladd@b+1
  3980  0C65  0828               	movf	??___fladd,w
  3981  0C66  00A0               	movwf	___fladd@b
  3982  0C67  0A75               	incf	___fladd@bexp,w
  3983  0C68  1903               	btfsc	3,2
  3984  0C69  2C6B               	goto	u6051
  3985  0C6A  2C6C               	goto	u6050
  3986  0C6B                     u6051:	
  3987  0C6B  2C70               	goto	l758
  3988  0C6C                     u6050:	
  3989  0C6C                     l4321:	
  3990  0C6C  3001               	movlw	1
  3991  0C6D  00A8               	movwf	??___fladd
  3992  0C6E  0828               	movf	??___fladd,w
  3993  0C6F  07F5               	addwf	___fladd@bexp,f
  3994  0C70                     l758:	
  3995  0C70  0A75               	incf	___fladd@bexp,w
  3996  0C71  1903               	btfsc	3,2
  3997  0C72  2C74               	goto	u6061
  3998  0C73  2C75               	goto	u6060
  3999  0C74                     u6061:	
  4000  0C74  2C7A               	goto	l4325
  4001  0C75                     u6060:	
  4002  0C75                     l4323:	
  4003  0C75  0875               	movf	___fladd@bexp,w
  4004  0C76  1D03               	btfss	3,2
  4005  0C77  2C79               	goto	u6071
  4006  0C78  2C7A               	goto	u6070
  4007  0C79                     u6071:	
  4008  0C79  2C88               	goto	l4331
  4009  0C7A                     u6070:	
  4010  0C7A                     l4325:	
  4011  0C7A  3000               	movlw	0
  4012  0C7B  00A3               	movwf	___fladd@b+3
  4013  0C7C  3000               	movlw	0
  4014  0C7D  00A2               	movwf	___fladd@b+2
  4015  0C7E  3000               	movlw	0
  4016  0C7F  00A1               	movwf	___fladd@b+1
  4017  0C80  3000               	movlw	0
  4018  0C81  00A0               	movwf	___fladd@b
  4019  0C82                     l4327:	
  4020  0C82  0875               	movf	___fladd@bexp,w
  4021  0C83  1D03               	btfss	3,2
  4022  0C84  2C86               	goto	u6081
  4023  0C85  2C87               	goto	u6080
  4024  0C86                     u6081:	
  4025  0C86  2C88               	goto	l4331
  4026  0C87                     u6080:	
  4027  0C87                     l4329:	
  4028  0C87  01F3               	clrf	___fladd@signs
  4029  0C88                     l4331:	
  4030  0C88  1C75               	btfss	___fladd@bexp,0
  4031  0C89  2C8B               	goto	u6091
  4032  0C8A  2C8C               	goto	u6090
  4033  0C8B                     u6091:	
  4034  0C8B  2C8E               	goto	l4335
  4035  0C8C                     u6090:	
  4036  0C8C                     l4333:	
  4037  0C8C  17A2               	bsf	___fladd@b+2,7
  4038  0C8D  2C92               	goto	l766
  4039  0C8E                     l4335:	
  4040  0C8E  307F               	movlw	127
  4041  0C8F  00A8               	movwf	??___fladd
  4042  0C90  0828               	movf	??___fladd,w
  4043  0C91  05A2               	andwf	___fladd@b+2,f
  4044  0C92                     l766:	
  4045  0C92  0875               	movf	___fladd@bexp,w
  4046  0C93  00A8               	movwf	??___fladd
  4047  0C94  1003               	clrc
  4048  0C95  0C28               	rrf	??___fladd,w
  4049  0C96  00A9               	movwf	??___fladd+1
  4050  0C97  0829               	movf	??___fladd+1,w
  4051  0C98  00A3               	movwf	___fladd@b+3
  4052  0C99                     l4337:	
  4053  0C99  1FF3               	btfss	___fladd@signs,7
  4054  0C9A  2C9C               	goto	u6101
  4055  0C9B  2C9D               	goto	u6100
  4056  0C9C                     u6101:	
  4057  0C9C  2C9E               	goto	l767
  4058  0C9D                     u6100:	
  4059  0C9D                     l4339:	
  4060  0C9D  17A3               	bsf	___fladd@b+3,7
  4061  0C9E                     l767:	
  4062  0C9E                     l737:	
  4063  0C9E  0008               	return
  4064  0C9F                     __end_of___fladd:	
  4065                           
  4066                           	psect	text3
  4067  13CF                     __ptext3:	
  4068 ;; *************** function ___flge *****************
  4069 ;; Defined at:
  4070 ;;		line 4 in file "C:\Program Files (x86)\Microchip\xc8\v2.10\pic\sources\c90\common\flge.c"
  4071 ;; Parameters:    Size  Location     Type
  4072 ;;  ff1             4    0[BANK0 ] unsigned char 
  4073 ;;  ff2             4    4[BANK0 ] unsigned char 
  4074 ;; Auto vars:     Size  Location     Type
  4075 ;;		None
  4076 ;; Return value:  Size  Location     Type
  4077 ;;		None               void
  4078 ;; Registers used:
  4079 ;;		wreg, status,2, status,0
  4080 ;; Tracked objects:
  4081 ;;		On entry : 0/0
  4082 ;;		On exit  : 0/0
  4083 ;;		Unchanged: 0/0
  4084 ;; Data sizes:     COMMON   BANK0   BANK1   BANK3   BANK2
  4085 ;;      Params:         0       8       0       0       0
  4086 ;;      Locals:         0       0       0       0       0
  4087 ;;      Temps:          4       0       0       0       0
  4088 ;;      Totals:         4       8       0       0       0
  4089 ;;Total ram usage:       12 bytes
  4090 ;; Hardware stack levels used:    1
  4091 ;; Hardware stack levels required when called:    1
  4092 ;; This function calls:
  4093 ;;		Nothing
  4094 ;; This function is called by:
  4095 ;;		_main
  4096 ;; This function uses a non-reentrant model
  4097 ;;
  4098                           
  4099                           
  4100                           ;psect for function ___flge
  4101  13CF                     ___flge:	
  4102  13CF                     l4555:	
  4103                           ;incstack = 0
  4104                           ; Regs used in ___flge: [wreg+status,2+status,0]
  4105                           
  4106  13CF  3000               	movlw	0
  4107  13D0  1283               	bcf	3,5	;RP0=0, select bank0
  4108  13D1  1303               	bcf	3,6	;RP1=0, select bank0
  4109  13D2  0520               	andwf	___flge@ff1,w
  4110  13D3  00F3               	movwf	??___flge
  4111  13D4  3000               	movlw	0
  4112  13D5  0521               	andwf	___flge@ff1+1,w
  4113  13D6  00F4               	movwf	??___flge+1
  4114  13D7  3080               	movlw	128
  4115  13D8  0522               	andwf	___flge@ff1+2,w
  4116  13D9  00F5               	movwf	??___flge+2
  4117  13DA  307F               	movlw	127
  4118  13DB  0523               	andwf	___flge@ff1+3,w
  4119  13DC  00F6               	movwf	??___flge+3
  4120  13DD  0876               	movf	??___flge+3,w
  4121  13DE  0475               	iorwf	??___flge+2,w
  4122  13DF  0474               	iorwf	??___flge+1,w
  4123  13E0  0473               	iorwf	??___flge,w
  4124  13E1  1D03               	skipz
  4125  13E2  2BE4               	goto	u6411
  4126  13E3  2BE5               	goto	u6410
  4127  13E4                     u6411:	
  4128  13E4  2BED               	goto	l605
  4129  13E5                     u6410:	
  4130  13E5                     l4557:	
  4131  13E5  3000               	movlw	0
  4132  13E6  00A3               	movwf	___flge@ff1+3
  4133  13E7  3000               	movlw	0
  4134  13E8  00A2               	movwf	___flge@ff1+2
  4135  13E9  3000               	movlw	0
  4136  13EA  00A1               	movwf	___flge@ff1+1
  4137  13EB  3000               	movlw	0
  4138  13EC  00A0               	movwf	___flge@ff1
  4139  13ED                     l605:	
  4140  13ED  3000               	movlw	0
  4141  13EE  0524               	andwf	___flge@ff2,w
  4142  13EF  00F3               	movwf	??___flge
  4143  13F0  3000               	movlw	0
  4144  13F1  0525               	andwf	___flge@ff2+1,w
  4145  13F2  00F4               	movwf	??___flge+1
  4146  13F3  3080               	movlw	128
  4147  13F4  0526               	andwf	___flge@ff2+2,w
  4148  13F5  00F5               	movwf	??___flge+2
  4149  13F6  307F               	movlw	127
  4150  13F7  0527               	andwf	___flge@ff2+3,w
  4151  13F8  00F6               	movwf	??___flge+3
  4152  13F9  0876               	movf	??___flge+3,w
  4153  13FA  0475               	iorwf	??___flge+2,w
  4154  13FB  0474               	iorwf	??___flge+1,w
  4155  13FC  0473               	iorwf	??___flge,w
  4156  13FD  1D03               	skipz
  4157  13FE  2C00               	goto	u6421
  4158  13FF  2C01               	goto	u6420
  4159  1400                     u6421:	
  4160  1400  2C09               	goto	l4561
  4161  1401                     u6420:	
  4162  1401                     l4559:	
  4163  1401  3000               	movlw	0
  4164  1402  00A7               	movwf	___flge@ff2+3
  4165  1403  3000               	movlw	0
  4166  1404  00A6               	movwf	___flge@ff2+2
  4167  1405  3000               	movlw	0
  4168  1406  00A5               	movwf	___flge@ff2+1
  4169  1407  3000               	movlw	0
  4170  1408  00A4               	movwf	___flge@ff2
  4171  1409                     l4561:	
  4172  1409  1FA3               	btfss	___flge@ff1+3,7
  4173  140A  2C0C               	goto	u6431
  4174  140B  2C0D               	goto	u6430
  4175  140C                     u6431:	
  4176  140C  2C31               	goto	l4565
  4177  140D                     u6430:	
  4178  140D                     l4563:	
  4179  140D  3000               	movlw	0
  4180  140E  00F3               	movwf	??___flge
  4181  140F  3000               	movlw	0
  4182  1410  00F4               	movwf	??___flge+1
  4183  1411  3000               	movlw	0
  4184  1412  00F5               	movwf	??___flge+2
  4185  1413  3080               	movlw	128
  4186  1414  00F6               	movwf	??___flge+3
  4187  1415  0820               	movf	___flge@ff1,w
  4188  1416  02F3               	subwf	??___flge,f
  4189  1417  0821               	movf	___flge@ff1+1,w
  4190  1418  1C03               	skipc
  4191  1419  0F21               	incfsz	___flge@ff1+1,w
  4192  141A  2C1C               	goto	u6441
  4193  141B  2C1D               	goto	u6442
  4194  141C                     u6441:	
  4195  141C  02F4               	subwf	??___flge+1,f
  4196  141D                     u6442:	
  4197  141D  0822               	movf	___flge@ff1+2,w
  4198  141E  1C03               	skipc
  4199  141F  0F22               	incfsz	___flge@ff1+2,w
  4200  1420  2C22               	goto	u6443
  4201  1421  2C23               	goto	u6444
  4202  1422                     u6443:	
  4203  1422  02F5               	subwf	??___flge+2,f
  4204  1423                     u6444:	
  4205  1423  0823               	movf	___flge@ff1+3,w
  4206  1424  1C03               	skipc
  4207  1425  0F23               	incfsz	___flge@ff1+3,w
  4208  1426  2C28               	goto	u6445
  4209  1427  2C29               	goto	u6446
  4210  1428                     u6445:	
  4211  1428  02F6               	subwf	??___flge+3,f
  4212  1429                     u6446:	
  4213  1429  0876               	movf	??___flge+3,w
  4214  142A  00A3               	movwf	___flge@ff1+3
  4215  142B  0875               	movf	??___flge+2,w
  4216  142C  00A2               	movwf	___flge@ff1+2
  4217  142D  0874               	movf	??___flge+1,w
  4218  142E  00A1               	movwf	___flge@ff1+1
  4219  142F  0873               	movf	??___flge,w
  4220  1430  00A0               	movwf	___flge@ff1
  4221  1431                     l4565:	
  4222  1431  1FA7               	btfss	___flge@ff2+3,7
  4223  1432  2C34               	goto	u6451
  4224  1433  2C35               	goto	u6450
  4225  1434                     u6451:	
  4226  1434  2C59               	goto	l608
  4227  1435                     u6450:	
  4228  1435                     l4567:	
  4229  1435  3000               	movlw	0
  4230  1436  00F3               	movwf	??___flge
  4231  1437  3000               	movlw	0
  4232  1438  00F4               	movwf	??___flge+1
  4233  1439  3000               	movlw	0
  4234  143A  00F5               	movwf	??___flge+2
  4235  143B  3080               	movlw	128
  4236  143C  00F6               	movwf	??___flge+3
  4237  143D  0824               	movf	___flge@ff2,w
  4238  143E  02F3               	subwf	??___flge,f
  4239  143F  0825               	movf	___flge@ff2+1,w
  4240  1440  1C03               	skipc
  4241  1441  0F25               	incfsz	___flge@ff2+1,w
  4242  1442  2C44               	goto	u6461
  4243  1443  2C45               	goto	u6462
  4244  1444                     u6461:	
  4245  1444  02F4               	subwf	??___flge+1,f
  4246  1445                     u6462:	
  4247  1445  0826               	movf	___flge@ff2+2,w
  4248  1446  1C03               	skipc
  4249  1447  0F26               	incfsz	___flge@ff2+2,w
  4250  1448  2C4A               	goto	u6463
  4251  1449  2C4B               	goto	u6464
  4252  144A                     u6463:	
  4253  144A  02F5               	subwf	??___flge+2,f
  4254  144B                     u6464:	
  4255  144B  0827               	movf	___flge@ff2+3,w
  4256  144C  1C03               	skipc
  4257  144D  0F27               	incfsz	___flge@ff2+3,w
  4258  144E  2C50               	goto	u6465
  4259  144F  2C51               	goto	u6466
  4260  1450                     u6465:	
  4261  1450  02F6               	subwf	??___flge+3,f
  4262  1451                     u6466:	
  4263  1451  0876               	movf	??___flge+3,w
  4264  1452  00A7               	movwf	___flge@ff2+3
  4265  1453  0875               	movf	??___flge+2,w
  4266  1454  00A6               	movwf	___flge@ff2+2
  4267  1455  0874               	movf	??___flge+1,w
  4268  1456  00A5               	movwf	___flge@ff2+1
  4269  1457  0873               	movf	??___flge,w
  4270  1458  00A4               	movwf	___flge@ff2
  4271  1459                     l608:	
  4272  1459  3080               	movlw	128
  4273  145A  06A3               	xorwf	___flge@ff1+3,f
  4274  145B  3080               	movlw	128
  4275  145C  06A7               	xorwf	___flge@ff2+3,f
  4276  145D  0827               	movf	___flge@ff2+3,w
  4277  145E  0223               	subwf	___flge@ff1+3,w
  4278  145F  1D03               	skipz
  4279  1460  2C6B               	goto	u6475
  4280  1461  0826               	movf	___flge@ff2+2,w
  4281  1462  0222               	subwf	___flge@ff1+2,w
  4282  1463  1D03               	skipz
  4283  1464  2C6B               	goto	u6475
  4284  1465  0825               	movf	___flge@ff2+1,w
  4285  1466  0221               	subwf	___flge@ff1+1,w
  4286  1467  1D03               	skipz
  4287  1468  2C6B               	goto	u6475
  4288  1469  0824               	movf	___flge@ff2,w
  4289  146A  0220               	subwf	___flge@ff1,w
  4290  146B                     u6475:	
  4291  146B  1803               	skipnc
  4292  146C  2C6E               	goto	u6471
  4293  146D  2C6F               	goto	u6470
  4294  146E                     u6471:	
  4295  146E  2C71               	goto	l4571
  4296  146F                     u6470:	
  4297  146F                     l4569:	
  4298  146F  1003               	clrc
  4299  1470  2C72               	goto	l609
  4300  1471                     l4571:	
  4301  1471  1403               	setc
  4302  1472                     l609:	
  4303  1472  0008               	return
  4304  1473                     __end_of___flge:	
  4305                           
  4306                           	psect	text4
  4307  07AC                     __ptext4:	
  4308 ;; *************** function ___fleq *****************
  4309 ;; Defined at:
  4310 ;;		line 4 in file "C:\Program Files (x86)\Microchip\xc8\v2.10\pic\sources\c90\common\fleq.c"
  4311 ;; Parameters:    Size  Location     Type
  4312 ;;  ff1             4    0[BANK0 ] unsigned char 
  4313 ;;  ff2             4    4[BANK0 ] unsigned char 
  4314 ;; Auto vars:     Size  Location     Type
  4315 ;;		None
  4316 ;; Return value:  Size  Location     Type
  4317 ;;		None               void
  4318 ;; Registers used:
  4319 ;;		wreg, status,2, status,0
  4320 ;; Tracked objects:
  4321 ;;		On entry : 0/0
  4322 ;;		On exit  : 0/0
  4323 ;;		Unchanged: 0/0
  4324 ;; Data sizes:     COMMON   BANK0   BANK1   BANK3   BANK2
  4325 ;;      Params:         0       8       0       0       0
  4326 ;;      Locals:         0       0       0       0       0
  4327 ;;      Temps:          4       0       0       0       0
  4328 ;;      Totals:         4       8       0       0       0
  4329 ;;Total ram usage:       12 bytes
  4330 ;; Hardware stack levels used:    1
  4331 ;; Hardware stack levels required when called:    1
  4332 ;; This function calls:
  4333 ;;		Nothing
  4334 ;; This function is called by:
  4335 ;;		_main
  4336 ;; This function uses a non-reentrant model
  4337 ;;
  4338                           
  4339                           
  4340                           ;psect for function ___fleq
  4341  07AC                     ___fleq:	
  4342  07AC                     l4543:	
  4343                           ;incstack = 0
  4344                           ; Regs used in ___fleq: [wreg+status,2+status,0]
  4345                           
  4346  07AC  3000               	movlw	0
  4347  07AD  1283               	bcf	3,5	;RP0=0, select bank0
  4348  07AE  1303               	bcf	3,6	;RP1=0, select bank0
  4349  07AF  0520               	andwf	___fleq@ff1,w
  4350  07B0  00F3               	movwf	??___fleq
  4351  07B1  3000               	movlw	0
  4352  07B2  0521               	andwf	___fleq@ff1+1,w
  4353  07B3  00F4               	movwf	??___fleq+1
  4354  07B4  3080               	movlw	128
  4355  07B5  0522               	andwf	___fleq@ff1+2,w
  4356  07B6  00F5               	movwf	??___fleq+2
  4357  07B7  307F               	movlw	127
  4358  07B8  0523               	andwf	___fleq@ff1+3,w
  4359  07B9  00F6               	movwf	??___fleq+3
  4360  07BA  0876               	movf	??___fleq+3,w
  4361  07BB  0475               	iorwf	??___fleq+2,w
  4362  07BC  0474               	iorwf	??___fleq+1,w
  4363  07BD  0473               	iorwf	??___fleq,w
  4364  07BE  1D03               	skipz
  4365  07BF  2FC1               	goto	u6381
  4366  07C0  2FC2               	goto	u6380
  4367  07C1                     u6381:	
  4368  07C1  2FCA               	goto	l600
  4369  07C2                     u6380:	
  4370  07C2                     l4545:	
  4371  07C2  3000               	movlw	0
  4372  07C3  00A3               	movwf	___fleq@ff1+3
  4373  07C4  3000               	movlw	0
  4374  07C5  00A2               	movwf	___fleq@ff1+2
  4375  07C6  3000               	movlw	0
  4376  07C7  00A1               	movwf	___fleq@ff1+1
  4377  07C8  3000               	movlw	0
  4378  07C9  00A0               	movwf	___fleq@ff1
  4379  07CA                     l600:	
  4380  07CA  3000               	movlw	0
  4381  07CB  0524               	andwf	___fleq@ff2,w
  4382  07CC  00F3               	movwf	??___fleq
  4383  07CD  3000               	movlw	0
  4384  07CE  0525               	andwf	___fleq@ff2+1,w
  4385  07CF  00F4               	movwf	??___fleq+1
  4386  07D0  3080               	movlw	128
  4387  07D1  0526               	andwf	___fleq@ff2+2,w
  4388  07D2  00F5               	movwf	??___fleq+2
  4389  07D3  307F               	movlw	127
  4390  07D4  0527               	andwf	___fleq@ff2+3,w
  4391  07D5  00F6               	movwf	??___fleq+3
  4392  07D6  0876               	movf	??___fleq+3,w
  4393  07D7  0475               	iorwf	??___fleq+2,w
  4394  07D8  0474               	iorwf	??___fleq+1,w
  4395  07D9  0473               	iorwf	??___fleq,w
  4396  07DA  1D03               	skipz
  4397  07DB  2FDD               	goto	u6391
  4398  07DC  2FDE               	goto	u6390
  4399  07DD                     u6391:	
  4400  07DD  2FE6               	goto	l601
  4401  07DE                     u6390:	
  4402  07DE                     l4547:	
  4403  07DE  3000               	movlw	0
  4404  07DF  00A7               	movwf	___fleq@ff2+3
  4405  07E0  3000               	movlw	0
  4406  07E1  00A6               	movwf	___fleq@ff2+2
  4407  07E2  3000               	movlw	0
  4408  07E3  00A5               	movwf	___fleq@ff2+1
  4409  07E4  3000               	movlw	0
  4410  07E5  00A4               	movwf	___fleq@ff2
  4411  07E6                     l601:	
  4412  07E6  0827               	movf	___fleq@ff2+3,w
  4413  07E7  0623               	xorwf	___fleq@ff1+3,w
  4414  07E8  1D03               	skipz
  4415  07E9  2FF4               	goto	u6405
  4416  07EA  0826               	movf	___fleq@ff2+2,w
  4417  07EB  0622               	xorwf	___fleq@ff1+2,w
  4418  07EC  1D03               	skipz
  4419  07ED  2FF4               	goto	u6405
  4420  07EE  0825               	movf	___fleq@ff2+1,w
  4421  07EF  0621               	xorwf	___fleq@ff1+1,w
  4422  07F0  1D03               	skipz
  4423  07F1  2FF4               	goto	u6405
  4424  07F2  0824               	movf	___fleq@ff2,w
  4425  07F3  0620               	xorwf	___fleq@ff1,w
  4426  07F4                     u6405:	
  4427  07F4  1903               	skipnz
  4428  07F5  2FF7               	goto	u6401
  4429  07F6  2FF8               	goto	u6400
  4430  07F7                     u6401:	
  4431  07F7  2FFA               	goto	l4551
  4432  07F8                     u6400:	
  4433  07F8                     l4549:	
  4434  07F8  1003               	clrc
  4435  07F9  2FFB               	goto	l602
  4436  07FA                     l4551:	
  4437  07FA  1403               	setc
  4438  07FB                     l602:	
  4439  07FB  0008               	return
  4440  07FC                     __end_of___fleq:	
  4441                           
  4442                           	psect	text5
  4443  0809                     __ptext5:	
  4444 ;; *************** function _Pesar *****************
  4445 ;; Defined at:
  4446 ;;		line 437 in file "Codigo_TT2_01.c"
  4447 ;; Parameters:    Size  Location     Type
  4448 ;;		None
  4449 ;; Auto vars:     Size  Location     Type
  4450 ;;  volts           4    0        float 
  4451 ;;  adc             2    7[COMMON] int 
  4452 ;; Return value:  Size  Location     Type
  4453 ;;                  2    3[COMMON] int 
  4454 ;; Registers used:
  4455 ;;		wreg, btemp+1
  4456 ;; Tracked objects:
  4457 ;;		On entry : 0/0
  4458 ;;		On exit  : 0/0
  4459 ;;		Unchanged: 0/0
  4460 ;; Data sizes:     COMMON   BANK0   BANK1   BANK3   BANK2
  4461 ;;      Params:         2       0       0       0       0
  4462 ;;      Locals:         2       0       0       0       0
  4463 ;;      Temps:          2       0       0       0       0
  4464 ;;      Totals:         6       0       0       0       0
  4465 ;;Total ram usage:        6 bytes
  4466 ;; Hardware stack levels used:    1
  4467 ;; Hardware stack levels required when called:    1
  4468 ;; This function calls:
  4469 ;;		Nothing
  4470 ;; This function is called by:
  4471 ;;		_main
  4472 ;; This function uses a non-reentrant model
  4473 ;;
  4474                           
  4475                           
  4476                           ;psect for function _Pesar
  4477  0809                     _Pesar:	
  4478  0809                     l3505:	
  4479                           ;incstack = 0
  4480                           ; Regs used in _Pesar: [wreg+btemp+1]
  4481                           
  4482                           
  4483                           ;Codigo_TT2_01.c: 438:     int adc;;Codigo_TT2_01.c: 439:     float volts;;Codigo_TT2_01
      +                          .c: 441:     ADCON0bits.GO_nDONE = 1;
  4484  0809  1283               	bcf	3,5	;RP0=0, select bank0
  4485  080A  1303               	bcf	3,6	;RP1=0, select bank0
  4486  080B  149F               	bsf	31,1	;volatile
  4487  080C                     l316:	
  4488                           ;Codigo_TT2_01.c: 442:     while(ADCON0bits.GO_nDONE == 1);
  4489                           
  4490  080C  189F               	btfsc	31,1	;volatile
  4491  080D  280F               	goto	u4651
  4492  080E  2810               	goto	u4650
  4493  080F                     u4651:	
  4494  080F  280C               	goto	l316
  4495  0810                     u4650:	
  4496  0810                     l3507:	
  4497                           
  4498                           ;Codigo_TT2_01.c: 443:     adc = ADRESH;
  4499  0810  081E               	movf	30,w	;volatile
  4500  0811  00F5               	movwf	??_Pesar
  4501  0812  01F6               	clrf	??_Pesar+1
  4502  0813  0875               	movf	??_Pesar,w
  4503  0814  00F7               	movwf	Pesar@adc
  4504  0815  0876               	movf	??_Pesar+1,w
  4505  0816  00F8               	movwf	Pesar@adc+1
  4506  0817                     l3509:	
  4507                           
  4508                           ;Codigo_TT2_01.c: 444:     adc = adc << 8;
  4509  0817  0878               	movf	Pesar@adc+1,w
  4510  0818  00F6               	movwf	??_Pesar+1
  4511  0819  0877               	movf	Pesar@adc,w
  4512  081A  00F5               	movwf	??_Pesar
  4513  081B  0875               	movf	??_Pesar,w
  4514  081C  00F6               	movwf	??_Pesar+1
  4515  081D  01F5               	clrf	??_Pesar
  4516  081E  0875               	movf	??_Pesar,w
  4517  081F  00F7               	movwf	Pesar@adc
  4518  0820  0876               	movf	??_Pesar+1,w
  4519  0821  00F8               	movwf	Pesar@adc+1
  4520  0822                     l3511:	
  4521                           
  4522                           ;Codigo_TT2_01.c: 445:     adc = adc | ADRESL;
  4523  0822  0877               	movf	Pesar@adc,w
  4524  0823  1683               	bsf	3,5	;RP0=1, select bank1
  4525  0824  1303               	bcf	3,6	;RP1=0, select bank1
  4526  0825  041E               	iorwf	30,w	;volatile
  4527  0826  00F5               	movwf	??_Pesar
  4528  0827  0878               	movf	Pesar@adc+1,w
  4529  0828  00F6               	movwf	??_Pesar+1
  4530  0829  0875               	movf	??_Pesar,w
  4531  082A  00F7               	movwf	Pesar@adc
  4532  082B  0876               	movf	??_Pesar+1,w
  4533  082C  00F8               	movwf	Pesar@adc+1
  4534  082D                     l3513:	
  4535                           
  4536                           ;Codigo_TT2_01.c: 447:     return adc;
  4537  082D  0878               	movf	Pesar@adc+1,w
  4538  082E  00F4               	movwf	?_Pesar+1
  4539  082F  0877               	movf	Pesar@adc,w
  4540  0830  00F3               	movwf	?_Pesar
  4541  0831                     l319:	
  4542  0831  0008               	return
  4543  0832                     __end_of_Pesar:	
  4544                           
  4545                           	psect	text6
  4546  15EC                     __ptext6:	
  4547 ;; *************** function _MotorPasos_sensor *****************
  4548 ;; Defined at:
  4549 ;;		line 369 in file "Codigo_TT2_01.c"
  4550 ;; Parameters:    Size  Location     Type
  4551 ;;  motor_p         2   50[BANK0 ] int 
  4552 ;;  pasos           2   52[BANK0 ] int 
  4553 ;; Auto vars:     Size  Location     Type
  4554 ;;  i               2   58[BANK0 ] int 
  4555 ;;  n               2   68[BANK0 ] int 
  4556 ;;  tipo            2   66[BANK0 ] int 
  4557 ;;  paso            2   64[BANK0 ] int 
  4558 ;;  medida_temp     2   62[BANK0 ] int 
  4559 ;;  medida          2   60[BANK0 ] int 
  4560 ;;  sentido         2   56[BANK0 ] int 
  4561 ;; Return value:  Size  Location     Type
  4562 ;;                  2   50[BANK0 ] int 
  4563 ;; Registers used:
  4564 ;;		wreg, fsr0l, fsr0h, status,2, status,0, btemp+1, pclath, cstack
  4565 ;; Tracked objects:
  4566 ;;		On entry : 0/0
  4567 ;;		On exit  : 0/0
  4568 ;;		Unchanged: 0/0
  4569 ;; Data sizes:     COMMON   BANK0   BANK1   BANK3   BANK2
  4570 ;;      Params:         0       4       0       0       0
  4571 ;;      Locals:         0      14       0       0       0
  4572 ;;      Temps:          0       2       0       0       0
  4573 ;;      Totals:         0      20       0       0       0
  4574 ;;Total ram usage:       20 bytes
  4575 ;; Hardware stack levels used:    1
  4576 ;; Hardware stack levels required when called:    3
  4577 ;; This function calls:
  4578 ;;		_Medir
  4579 ;; This function is called by:
  4580 ;;		_main
  4581 ;; This function uses a non-reentrant model
  4582 ;;
  4583                           
  4584                           
  4585                           ;psect for function _MotorPasos_sensor
  4586  15EC                     _MotorPasos_sensor:	
  4587  15EC                     l4477:	
  4588                           ;incstack = 0
  4589                           ; Regs used in _MotorPasos_sensor: [wreg-fsr0h+status,2+status,0+btemp+1+pclath+cstack]
  4590                           
  4591                           
  4592                           ;Codigo_TT2_01.c: 370:     int paso, n, medida = 400, medida_temp = 0, sentido, tipo;
  4593  15EC  3090               	movlw	144
  4594  15ED  1283               	bcf	3,5	;RP0=0, select bank0
  4595  15EE  1303               	bcf	3,6	;RP1=0, select bank0
  4596  15EF  00DC               	movwf	MotorPasos_sensor@medida
  4597  15F0  3001               	movlw	1
  4598  15F1  00DD               	movwf	MotorPasos_sensor@medida+1
  4599  15F2                     l4479:	
  4600  15F2                     l4481:	
  4601                           
  4602                           ;Codigo_TT2_01.c: 371:     n = motor_p;
  4603  15F2  0853               	movf	MotorPasos_sensor@motor_p+1,w
  4604  15F3  00E5               	movwf	MotorPasos_sensor@n+1
  4605  15F4  0852               	movf	MotorPasos_sensor@motor_p,w
  4606  15F5  00E4               	movwf	MotorPasos_sensor@n
  4607                           
  4608                           ;Codigo_TT2_01.c: 372:     sentido = 0;
  4609  15F6  01D8               	clrf	MotorPasos_sensor@sentido
  4610  15F7  01D9               	clrf	MotorPasos_sensor@sentido+1
  4611  15F8                     l4483:	
  4612                           
  4613                           ;Codigo_TT2_01.c: 373:     tipo = 1;
  4614  15F8  3001               	movlw	1
  4615  15F9  00E2               	movwf	MotorPasos_sensor@tipo
  4616  15FA  3000               	movlw	0
  4617  15FB  00E3               	movwf	MotorPasos_sensor@tipo+1
  4618  15FC                     l4485:	
  4619                           
  4620                           ;Codigo_TT2_01.c: 374:     for(int i = 0; i < pasos;i++){
  4621  15FC  01DA               	clrf	MotorPasos_sensor@i
  4622  15FD  01DB               	clrf	MotorPasos_sensor@i+1
  4623  15FE  2ED4               	goto	l280
  4624  15FF                     l4487:	
  4625                           
  4626                           ;Codigo_TT2_01.c: 375:         if (sentido == 1){
  4627  15FF  1283               	bcf	3,5	;RP0=0, select bank0
  4628  1600  1303               	bcf	3,6	;RP1=0, select bank0
  4629  1601  0358               	decf	MotorPasos_sensor@sentido,w
  4630  1602  0459               	iorwf	MotorPasos_sensor@sentido+1,w
  4631  1603  1D03               	btfss	3,2
  4632  1604  2E06               	goto	u6281
  4633  1605  2E07               	goto	u6280
  4634  1606                     u6281:	
  4635  1606  2E24               	goto	l4495
  4636  1607                     u6280:	
  4637  1607                     l4489:	
  4638                           
  4639                           ;Codigo_TT2_01.c: 376:             if(n >= 4) n = 1;
  4640  1607  0865               	movf	MotorPasos_sensor@n+1,w
  4641  1608  3A80               	xorlw	128
  4642  1609  00FF               	movwf	btemp+1
  4643  160A  3080               	movlw	128
  4644  160B  027F               	subwf	btemp+1,w
  4645  160C  1D03               	skipz
  4646  160D  2E10               	goto	u6295
  4647  160E  3004               	movlw	4
  4648  160F  0264               	subwf	MotorPasos_sensor@n,w
  4649  1610                     u6295:	
  4650  1610  1C03               	skipc
  4651  1611  2E13               	goto	u6291
  4652  1612  2E14               	goto	u6290
  4653  1613                     u6291:	
  4654  1613  2E1B               	goto	l4493
  4655  1614                     u6290:	
  4656  1614                     l4491:	
  4657  1614  3001               	movlw	1
  4658  1615  1283               	bcf	3,5	;RP0=0, select bank0
  4659  1616  1303               	bcf	3,6	;RP1=0, select bank0
  4660  1617  00E4               	movwf	MotorPasos_sensor@n
  4661  1618  3000               	movlw	0
  4662  1619  00E5               	movwf	MotorPasos_sensor@n+1
  4663  161A  2E81               	goto	l4525
  4664  161B                     l4493:	
  4665  161B  3001               	movlw	1
  4666  161C  1283               	bcf	3,5	;RP0=0, select bank0
  4667  161D  1303               	bcf	3,6	;RP1=0, select bank0
  4668  161E  07E4               	addwf	MotorPasos_sensor@n,f
  4669  161F  1803               	skipnc
  4670  1620  0AE5               	incf	MotorPasos_sensor@n+1,f
  4671  1621  3000               	movlw	0
  4672  1622  07E5               	addwf	MotorPasos_sensor@n+1,f
  4673  1623  2E81               	goto	l4525
  4674  1624                     l4495:	
  4675                           
  4676                           ;Codigo_TT2_01.c: 380:             if(n <= 1) n = 4;
  4677  1624  0865               	movf	MotorPasos_sensor@n+1,w
  4678  1625  3A80               	xorlw	128
  4679  1626  00FF               	movwf	btemp+1
  4680  1627  3080               	movlw	128
  4681  1628  027F               	subwf	btemp+1,w
  4682  1629  1D03               	skipz
  4683  162A  2E2D               	goto	u6305
  4684  162B  3002               	movlw	2
  4685  162C  0264               	subwf	MotorPasos_sensor@n,w
  4686  162D                     u6305:	
  4687  162D  1803               	skipnc
  4688  162E  2E30               	goto	u6301
  4689  162F  2E31               	goto	u6300
  4690  1630                     u6301:	
  4691  1630  2E38               	goto	l4499
  4692  1631                     u6300:	
  4693  1631                     l4497:	
  4694  1631  3004               	movlw	4
  4695  1632  1283               	bcf	3,5	;RP0=0, select bank0
  4696  1633  1303               	bcf	3,6	;RP1=0, select bank0
  4697  1634  00E4               	movwf	MotorPasos_sensor@n
  4698  1635  3000               	movlw	0
  4699  1636  00E5               	movwf	MotorPasos_sensor@n+1
  4700  1637  2E81               	goto	l4525
  4701  1638                     l4499:	
  4702  1638  30FF               	movlw	255
  4703  1639  1283               	bcf	3,5	;RP0=0, select bank0
  4704  163A  1303               	bcf	3,6	;RP1=0, select bank0
  4705  163B  07E4               	addwf	MotorPasos_sensor@n,f
  4706  163C  1803               	skipnc
  4707  163D  0AE5               	incf	MotorPasos_sensor@n+1,f
  4708  163E  30FF               	movlw	255
  4709  163F  07E5               	addwf	MotorPasos_sensor@n+1,f
  4710  1640  2E81               	goto	l4525
  4711  1641                     l4501:	
  4712                           
  4713                           ;Codigo_TT2_01.c: 385:                 if (tipo == 1) paso = 0b1010;
  4714  1641  0362               	decf	MotorPasos_sensor@tipo,w
  4715  1642  0463               	iorwf	MotorPasos_sensor@tipo+1,w
  4716  1643  1D03               	btfss	3,2
  4717  1644  2E46               	goto	u6311
  4718  1645  2E47               	goto	u6310
  4719  1646                     u6311:	
  4720  1646  2E4C               	goto	l4505
  4721  1647                     u6310:	
  4722  1647                     l4503:	
  4723  1647  300A               	movlw	10
  4724  1648  00E0               	movwf	MotorPasos_sensor@paso
  4725  1649  3000               	movlw	0
  4726  164A  00E1               	movwf	MotorPasos_sensor@paso+1
  4727  164B  2E91               	goto	l4527
  4728  164C                     l4505:	
  4729  164C  3001               	movlw	1
  4730  164D  00E0               	movwf	MotorPasos_sensor@paso
  4731  164E  3000               	movlw	0
  4732  164F  00E1               	movwf	MotorPasos_sensor@paso+1
  4733  1650  2E91               	goto	l4527
  4734  1651                     l4507:	
  4735                           
  4736                           ;Codigo_TT2_01.c: 389:                 if (tipo == 1) paso = 0b1001;
  4737  1651  0362               	decf	MotorPasos_sensor@tipo,w
  4738  1652  0463               	iorwf	MotorPasos_sensor@tipo+1,w
  4739  1653  1D03               	btfss	3,2
  4740  1654  2E56               	goto	u6321
  4741  1655  2E57               	goto	u6320
  4742  1656                     u6321:	
  4743  1656  2E5C               	goto	l4511
  4744  1657                     u6320:	
  4745  1657                     l4509:	
  4746  1657  3009               	movlw	9
  4747  1658  00E0               	movwf	MotorPasos_sensor@paso
  4748  1659  3000               	movlw	0
  4749  165A  00E1               	movwf	MotorPasos_sensor@paso+1
  4750  165B  2E91               	goto	l4527
  4751  165C                     l4511:	
  4752  165C  3002               	movlw	2
  4753  165D  00E0               	movwf	MotorPasos_sensor@paso
  4754  165E  3000               	movlw	0
  4755  165F  00E1               	movwf	MotorPasos_sensor@paso+1
  4756  1660  2E91               	goto	l4527
  4757  1661                     l4513:	
  4758                           
  4759                           ;Codigo_TT2_01.c: 393:                 if (tipo == 1) paso = 0b0101;
  4760  1661  0362               	decf	MotorPasos_sensor@tipo,w
  4761  1662  0463               	iorwf	MotorPasos_sensor@tipo+1,w
  4762  1663  1D03               	btfss	3,2
  4763  1664  2E66               	goto	u6331
  4764  1665  2E67               	goto	u6330
  4765  1666                     u6331:	
  4766  1666  2E6C               	goto	l4517
  4767  1667                     u6330:	
  4768  1667                     l4515:	
  4769  1667  3005               	movlw	5
  4770  1668  00E0               	movwf	MotorPasos_sensor@paso
  4771  1669  3000               	movlw	0
  4772  166A  00E1               	movwf	MotorPasos_sensor@paso+1
  4773  166B  2E91               	goto	l4527
  4774  166C                     l4517:	
  4775  166C  3004               	movlw	4
  4776  166D  00E0               	movwf	MotorPasos_sensor@paso
  4777  166E  3000               	movlw	0
  4778  166F  00E1               	movwf	MotorPasos_sensor@paso+1
  4779  1670  2E91               	goto	l4527
  4780  1671                     l4519:	
  4781                           
  4782                           ;Codigo_TT2_01.c: 397:                 if (tipo == 1) paso = 0b0110;
  4783  1671  0362               	decf	MotorPasos_sensor@tipo,w
  4784  1672  0463               	iorwf	MotorPasos_sensor@tipo+1,w
  4785  1673  1D03               	btfss	3,2
  4786  1674  2E76               	goto	u6341
  4787  1675  2E77               	goto	u6340
  4788  1676                     u6341:	
  4789  1676  2E7C               	goto	l4523
  4790  1677                     u6340:	
  4791  1677                     l4521:	
  4792  1677  3006               	movlw	6
  4793  1678  00E0               	movwf	MotorPasos_sensor@paso
  4794  1679  3000               	movlw	0
  4795  167A  00E1               	movwf	MotorPasos_sensor@paso+1
  4796  167B  2E91               	goto	l4527
  4797  167C                     l4523:	
  4798  167C  3008               	movlw	8
  4799  167D  00E0               	movwf	MotorPasos_sensor@paso
  4800  167E  3000               	movlw	0
  4801  167F  00E1               	movwf	MotorPasos_sensor@paso+1
  4802  1680  2E91               	goto	l4527
  4803  1681                     l4525:	
  4804                           
  4805                           ; Switch on 2 bytes has been partitioned into a top level switch of size 1, and 1 sub-sw
      +                          itches
  4806                           ; Switch size 1, requested type "simple"
  4807                           ; Number of cases is 1, Range of values is 0 to 0
  4808                           ; switch strategies available:
  4809                           ; Name         Instructions Cycles
  4810                           ; simple_byte            4     3 (average)
  4811                           ; direct_byte           11     8 (fixed)
  4812                           ; jumptable            260     6 (fixed)
  4813                           ;	Chosen strategy is simple_byte
  4814  1681  0865               	movf	MotorPasos_sensor@n+1,w
  4815  1682  3A00               	xorlw	0	; case 0
  4816  1683  1903               	skipnz
  4817  1684  2E86               	goto	l4885
  4818  1685  2E71               	goto	l4519
  4819  1686                     l4885:	
  4820                           
  4821                           ; Switch size 1, requested type "simple"
  4822                           ; Number of cases is 3, Range of values is 1 to 3
  4823                           ; switch strategies available:
  4824                           ; Name         Instructions Cycles
  4825                           ; simple_byte           10     6 (average)
  4826                           ; direct_byte           20    11 (fixed)
  4827                           ; jumptable            263     9 (fixed)
  4828                           ;	Chosen strategy is simple_byte
  4829  1686  0864               	movf	MotorPasos_sensor@n,w
  4830  1687  3A01               	xorlw	1	; case 1
  4831  1688  1903               	skipnz
  4832  1689  2E41               	goto	l4501
  4833  168A  3A03               	xorlw	3	; case 2
  4834  168B  1903               	skipnz
  4835  168C  2E51               	goto	l4507
  4836  168D  3A01               	xorlw	1	; case 3
  4837  168E  1903               	skipnz
  4838  168F  2E61               	goto	l4513
  4839  1690  2E71               	goto	l4519
  4840  1691                     l4527:	
  4841                           
  4842                           ;Codigo_TT2_01.c: 403:         PORTC &= 0x0F;
  4843  1691  300F               	movlw	15
  4844  1692  00D6               	movwf	??_MotorPasos_sensor
  4845  1693  0856               	movf	??_MotorPasos_sensor,w
  4846  1694  0587               	andwf	7,f	;volatile
  4847                           
  4848                           ;Codigo_TT2_01.c: 404:         PORTC |= (paso << 4);
  4849  1695  0860               	movf	MotorPasos_sensor@paso,w	;volatile
  4850  1696  00D6               	movwf	??_MotorPasos_sensor
  4851  1697  3003               	movlw	3
  4852  1698                     u6355:	
  4853  1698  1003               	clrc
  4854  1699  0DD6               	rlf	??_MotorPasos_sensor,f
  4855  169A  3EFF               	addlw	-1
  4856  169B  1D03               	skipz
  4857  169C  2E98               	goto	u6355
  4858  169D  1003               	clrc
  4859  169E  0D56               	rlf	??_MotorPasos_sensor,w
  4860  169F  00D7               	movwf	??_MotorPasos_sensor+1
  4861  16A0  0857               	movf	??_MotorPasos_sensor+1,w
  4862  16A1  0487               	iorwf	7,f	;volatile
  4863  16A2                     l4529:	
  4864                           
  4865                           ;Codigo_TT2_01.c: 408:         medida_temp = Medir();
  4866  16A2  160A  118A  216A  160A  118A  	fcall	_Medir
  4867  16A7  1283               	bcf	3,5	;RP0=0, select bank0
  4868  16A8  1303               	bcf	3,6	;RP1=0, select bank0
  4869  16A9  084E               	movf	?_Medir+1,w
  4870  16AA  00DF               	movwf	MotorPasos_sensor@medida_temp+1
  4871  16AB  084D               	movf	?_Medir,w
  4872  16AC  00DE               	movwf	MotorPasos_sensor@medida_temp
  4873  16AD                     l4531:	
  4874                           
  4875                           ;Codigo_TT2_01.c: 409:         if(medida_temp < medida) medida = medida_temp;
  4876  16AD  085F               	movf	MotorPasos_sensor@medida_temp+1,w
  4877  16AE  3A80               	xorlw	128
  4878  16AF  00D6               	movwf	??_MotorPasos_sensor
  4879  16B0  085D               	movf	MotorPasos_sensor@medida+1,w
  4880  16B1  3A80               	xorlw	128
  4881  16B2  0256               	subwf	??_MotorPasos_sensor,w
  4882  16B3  1D03               	skipz
  4883  16B4  2EB7               	goto	u6365
  4884  16B5  085C               	movf	MotorPasos_sensor@medida,w
  4885  16B6  025E               	subwf	MotorPasos_sensor@medida_temp,w
  4886  16B7                     u6365:	
  4887  16B7  1803               	skipnc
  4888  16B8  2EBA               	goto	u6361
  4889  16B9  2EBB               	goto	u6360
  4890  16BA                     u6361:	
  4891  16BA  2EC1               	goto	l302
  4892  16BB                     u6360:	
  4893  16BB                     l4533:	
  4894  16BB  1283               	bcf	3,5	;RP0=0, select bank0
  4895  16BC  1303               	bcf	3,6	;RP1=0, select bank0
  4896  16BD  085F               	movf	MotorPasos_sensor@medida_temp+1,w
  4897  16BE  00DD               	movwf	MotorPasos_sensor@medida+1
  4898  16BF  085E               	movf	MotorPasos_sensor@medida_temp,w
  4899  16C0  00DC               	movwf	MotorPasos_sensor@medida
  4900  16C1                     l302:	
  4901                           
  4902                           ;Codigo_TT2_01.c: 410:         _delay((unsigned long)((45)*(8000000/4000.0)));
  4903  16C1  3075               	movlw	117
  4904  16C2  1283               	bcf	3,5	;RP0=0, select bank0
  4905  16C3  1303               	bcf	3,6	;RP1=0, select bank0
  4906  16C4  00D7               	movwf	??_MotorPasos_sensor+1
  4907  16C5  30E0               	movlw	224
  4908  16C6  00D6               	movwf	??_MotorPasos_sensor
  4909  16C7                     u6957:	
  4910  16C7  0BD6               	decfsz	??_MotorPasos_sensor,f
  4911  16C8  2EC7               	goto	u6957
  4912  16C9  0BD7               	decfsz	??_MotorPasos_sensor+1,f
  4913  16CA  2EC7               	goto	u6957
  4914  16CB  0000               	nop
  4915                           
  4916                           ;Codigo_TT2_01.c: 411:     }
  4917  16CC  3001               	movlw	1
  4918  16CD  1283               	bcf	3,5	;RP0=0, select bank0
  4919  16CE  1303               	bcf	3,6	;RP1=0, select bank0
  4920  16CF  07DA               	addwf	MotorPasos_sensor@i,f
  4921  16D0  1803               	skipnc
  4922  16D1  0ADB               	incf	MotorPasos_sensor@i+1,f
  4923  16D2  3000               	movlw	0
  4924  16D3  07DB               	addwf	MotorPasos_sensor@i+1,f
  4925  16D4                     l280:	
  4926  16D4  085B               	movf	MotorPasos_sensor@i+1,w
  4927  16D5  3A80               	xorlw	128
  4928  16D6  00D6               	movwf	??_MotorPasos_sensor
  4929  16D7  0855               	movf	MotorPasos_sensor@pasos+1,w
  4930  16D8  3A80               	xorlw	128
  4931  16D9  0256               	subwf	??_MotorPasos_sensor,w
  4932  16DA  1D03               	skipz
  4933  16DB  2EDE               	goto	u6375
  4934  16DC  0854               	movf	MotorPasos_sensor@pasos,w
  4935  16DD  025A               	subwf	MotorPasos_sensor@i,w
  4936  16DE                     u6375:	
  4937  16DE  1C03               	skipc
  4938  16DF  2EE1               	goto	u6371
  4939  16E0  2EE2               	goto	u6370
  4940  16E1                     u6371:	
  4941  16E1  2DFF               	goto	l4487
  4942  16E2                     u6370:	
  4943  16E2                     l4535:	
  4944                           
  4945                           ;Codigo_TT2_01.c: 412:     altura = medida;
  4946  16E2  1283               	bcf	3,5	;RP0=0, select bank0
  4947  16E3  1303               	bcf	3,6	;RP1=0, select bank0
  4948  16E4  085D               	movf	MotorPasos_sensor@medida+1,w
  4949  16E5  1683               	bsf	3,5	;RP0=1, select bank1
  4950  16E6  1303               	bcf	3,6	;RP1=0, select bank1
  4951  16E7  00AB               	movwf	(_altura+1)^(0+128)
  4952  16E8  1283               	bcf	3,5	;RP0=0, select bank0
  4953  16E9  1303               	bcf	3,6	;RP1=0, select bank0
  4954  16EA  085C               	movf	MotorPasos_sensor@medida,w
  4955  16EB  1683               	bsf	3,5	;RP0=1, select bank1
  4956  16EC  1303               	bcf	3,6	;RP1=0, select bank1
  4957  16ED  00AA               	movwf	_altura^(0+128)
  4958                           
  4959                           ;Codigo_TT2_01.c: 413:     return n;
  4960  16EE  1283               	bcf	3,5	;RP0=0, select bank0
  4961  16EF  1303               	bcf	3,6	;RP1=0, select bank0
  4962  16F0  0865               	movf	MotorPasos_sensor@n+1,w
  4963  16F1  00D3               	movwf	?_MotorPasos_sensor+1
  4964  16F2  0864               	movf	MotorPasos_sensor@n,w
  4965  16F3  00D2               	movwf	?_MotorPasos_sensor
  4966  16F4                     l304:	
  4967  16F4  0008               	return
  4968  16F5                     __end_of_MotorPasos_sensor:	
  4969                           
  4970                           	psect	text7
  4971  116A                     __ptext7:	
  4972 ;; *************** function _Medir *****************
  4973 ;; Defined at:
  4974 ;;		line 415 in file "Codigo_TT2_01.c"
  4975 ;; Parameters:    Size  Location     Type
  4976 ;;		None
  4977 ;; Auto vars:     Size  Location     Type
  4978 ;;  dato_c          5    0        unsigned char [5]
  4979 ;;  medida          2   48[BANK0 ] int 
  4980 ;; Return value:  Size  Location     Type
  4981 ;;                  2   45[BANK0 ] int 
  4982 ;; Registers used:
  4983 ;;		wreg, status,2, status,0, btemp+1, pclath, cstack
  4984 ;; Tracked objects:
  4985 ;;		On entry : 0/0
  4986 ;;		On exit  : 0/0
  4987 ;;		Unchanged: 0/0
  4988 ;; Data sizes:     COMMON   BANK0   BANK1   BANK3   BANK2
  4989 ;;      Params:         0       2       0       0       0
  4990 ;;      Locals:         0       2       0       0       0
  4991 ;;      Temps:          0       1       0       0       0
  4992 ;;      Totals:         0       5       0       0       0
  4993 ;;Total ram usage:        5 bytes
  4994 ;; Hardware stack levels used:    1
  4995 ;; Hardware stack levels required when called:    2
  4996 ;; This function calls:
  4997 ;;		___fldiv
  4998 ;;		___fltol
  4999 ;;		___xxtofl
  5000 ;; This function is called by:
  5001 ;;		_MotorPasos_sensor
  5002 ;; This function uses a non-reentrant model
  5003 ;;
  5004                           
  5005                           
  5006                           ;psect for function _Medir
  5007  116A                     _Medir:	
  5008  116A                     l4121:	
  5009                           ;incstack = 0
  5010                           ; Regs used in _Medir: [wreg+status,2+status,0+btemp+1+pclath+cstack]
  5011                           
  5012  116A                     l4123:	
  5013                           
  5014                           ;Codigo_TT2_01.c: 417:     char dato_c[5];;Codigo_TT2_01.c: 418:     RB5 = 0;
  5015  116A  1283               	bcf	3,5	;RP0=0, select bank0
  5016  116B  1303               	bcf	3,6	;RP1=0, select bank0
  5017  116C  1286               	bcf	6,5	;volatile
  5018  116D                     l4125:	
  5019                           
  5020                           ;Codigo_TT2_01.c: 419:     RB6 = 0;
  5021  116D  1306               	bcf	6,6	;volatile
  5022  116E                     l4127:	
  5023                           
  5024                           ;Codigo_TT2_01.c: 420:     T1CON = 0x10;
  5025  116E  3010               	movlw	16
  5026  116F  0090               	movwf	16	;volatile
  5027  1170                     l4129:	
  5028                           
  5029                           ;Codigo_TT2_01.c: 421:     TMR1H = 0;
  5030  1170  018F               	clrf	15	;volatile
  5031  1171                     l4131:	
  5032                           
  5033                           ;Codigo_TT2_01.c: 422:     TMR1L = 0;
  5034  1171  018E               	clrf	14	;volatile
  5035  1172                     l4133:	
  5036                           
  5037                           ;Codigo_TT2_01.c: 423:     RB5 = 1;
  5038  1172  1686               	bsf	6,5	;volatile
  5039  1173                     l4135:	
  5040                           
  5041                           ;Codigo_TT2_01.c: 424:     _delay((unsigned long)((10)*(8000000/4000000.0)));
  5042  1173  3005               	movlw	5
  5043  1174  1283               	bcf	3,5	;RP0=0, select bank0
  5044  1175  1303               	bcf	3,6	;RP1=0, select bank0
  5045  1176  00CF               	movwf	??_Medir
  5046  1177                     u6967:	
  5047  1177  0BCF               	decfsz	??_Medir,f
  5048  1178  2977               	goto	u6967
  5049  1179  297A               	nop2
  5050  117A                     l4137:	
  5051                           
  5052                           ;Codigo_TT2_01.c: 425:     RB5 = 0;
  5053  117A  1283               	bcf	3,5	;RP0=0, select bank0
  5054  117B  1303               	bcf	3,6	;RP1=0, select bank0
  5055  117C  1286               	bcf	6,5	;volatile
  5056  117D                     l307:	
  5057                           ;Codigo_TT2_01.c: 426:     while(!RB6);
  5058                           
  5059  117D  1F06               	btfss	6,6	;volatile
  5060  117E  2980               	goto	u5631
  5061  117F  2981               	goto	u5630
  5062  1180                     u5631:	
  5063  1180  297D               	goto	l307
  5064  1181                     u5630:	
  5065  1181                     l309:	
  5066                           
  5067                           ;Codigo_TT2_01.c: 427:     TMR1ON = 1;
  5068  1181  1410               	bsf	16,0	;volatile
  5069  1182                     l310:	
  5070                           ;Codigo_TT2_01.c: 428:     while(RB6);
  5071                           
  5072  1182  1B06               	btfsc	6,6	;volatile
  5073  1183  2985               	goto	u5641
  5074  1184  2986               	goto	u5640
  5075  1185                     u5641:	
  5076  1185  2982               	goto	l310
  5077  1186                     u5640:	
  5078  1186                     l312:	
  5079                           
  5080                           ;Codigo_TT2_01.c: 429:     TMR1ON = 0;
  5081  1186  1010               	bcf	16,0	;volatile
  5082  1187                     l4139:	
  5083                           
  5084                           ;Codigo_TT2_01.c: 430:     medida = (TMR1L | (TMR1H<<8));
  5085  1187  080F               	movf	15,w	;volatile
  5086  1188  00D1               	movwf	Medir@medida+1
  5087  1189  080E               	movf	14,w	;volatile
  5088  118A  00D0               	movwf	Medir@medida
  5089  118B                     l4141:	
  5090                           
  5091                           ;Codigo_TT2_01.c: 431:     medida = medida/5.882;
  5092  118B  0850               	movf	Medir@medida,w
  5093  118C  00F3               	movwf	___xxtofl@val
  5094  118D  0851               	movf	Medir@medida+1,w
  5095  118E  00F4               	movwf	___xxtofl@val+1
  5096  118F  3000               	movlw	0
  5097  1190  1BF4               	btfsc	___xxtofl@val+1,7
  5098  1191  30FF               	movlw	255
  5099  1192  00F5               	movwf	___xxtofl@val+2
  5100  1193  00F6               	movwf	___xxtofl@val+3
  5101  1194  3001               	movlw	1
  5102  1195  160A  118A  2473  160A  118A  	fcall	___xxtofl
  5103  119A  0876               	movf	?___xxtofl+3,w
  5104  119B  1283               	bcf	3,5	;RP0=0, select bank0
  5105  119C  1303               	bcf	3,6	;RP1=0, select bank0
  5106  119D  00B1               	movwf	___fldiv@b+3
  5107  119E  0875               	movf	?___xxtofl+2,w
  5108  119F  00B0               	movwf	___fldiv@b+2
  5109  11A0  0874               	movf	?___xxtofl+1,w
  5110  11A1  00AF               	movwf	___fldiv@b+1
  5111  11A2  0873               	movf	?___xxtofl,w
  5112  11A3  00AE               	movwf	___fldiv@b
  5113  11A4  3040               	movlw	64
  5114  11A5  00AD               	movwf	___fldiv@a+3
  5115  11A6  30BC               	movlw	188
  5116  11A7  00AC               	movwf	___fldiv@a+2
  5117  11A8  3039               	movlw	57
  5118  11A9  00AB               	movwf	___fldiv@a+1
  5119  11AA  3058               	movlw	88
  5120  11AB  00AA               	movwf	___fldiv@a
  5121  11AC  120A  158A  2032  160A  118A  	fcall	___fldiv
  5122  11B1  1283               	bcf	3,5	;RP0=0, select bank0
  5123  11B2  1303               	bcf	3,6	;RP1=0, select bank0
  5124  11B3  082D               	movf	?___fldiv+3,w
  5125  11B4  00C7               	movwf	___fltol@f1+3
  5126  11B5  082C               	movf	?___fldiv+2,w
  5127  11B6  00C6               	movwf	___fltol@f1+2
  5128  11B7  082B               	movf	?___fldiv+1,w
  5129  11B8  00C5               	movwf	___fltol@f1+1
  5130  11B9  082A               	movf	?___fldiv,w
  5131  11BA  00C4               	movwf	___fltol@f1
  5132  11BB  160A  118A  223D  160A  118A  	fcall	___fltol
  5133  11C0  1283               	bcf	3,5	;RP0=0, select bank0
  5134  11C1  1303               	bcf	3,6	;RP1=0, select bank0
  5135  11C2  0845               	movf	?___fltol+1,w
  5136  11C3  00D1               	movwf	Medir@medida+1
  5137  11C4  0844               	movf	?___fltol,w
  5138  11C5  00D0               	movwf	Medir@medida
  5139  11C6                     l4143:	
  5140                           
  5141                           ;Codigo_TT2_01.c: 435:     return medida;
  5142  11C6  0851               	movf	Medir@medida+1,w
  5143  11C7  00CE               	movwf	?_Medir+1
  5144  11C8  0850               	movf	Medir@medida,w
  5145  11C9  00CD               	movwf	?_Medir
  5146  11CA                     l313:	
  5147  11CA  0008               	return
  5148  11CB                     __end_of_Medir:	
  5149                           
  5150                           	psect	text8
  5151  1473                     __ptext8:	
  5152 ;; *************** function ___xxtofl *****************
  5153 ;; Defined at:
  5154 ;;		line 10 in file "C:\Program Files (x86)\Microchip\xc8\v2.10\pic\sources\c90\common\xxtofl.c"
  5155 ;; Parameters:    Size  Location     Type
  5156 ;;  sign            1    wreg     unsigned char 
  5157 ;;  val             4    3[COMMON] long 
  5158 ;; Auto vars:     Size  Location     Type
  5159 ;;  sign            1    4[BANK0 ] unsigned char 
  5160 ;;  arg             4    6[BANK0 ] unsigned long 
  5161 ;;  exp             1    5[BANK0 ] unsigned char 
  5162 ;; Return value:  Size  Location     Type
  5163 ;;                  4    3[COMMON] unsigned char 
  5164 ;; Registers used:
  5165 ;;		wreg, status,2, status,0
  5166 ;; Tracked objects:
  5167 ;;		On entry : 0/0
  5168 ;;		On exit  : 0/0
  5169 ;;		Unchanged: 0/0
  5170 ;; Data sizes:     COMMON   BANK0   BANK1   BANK3   BANK2
  5171 ;;      Params:         4       0       0       0       0
  5172 ;;      Locals:         0       6       0       0       0
  5173 ;;      Temps:          0       4       0       0       0
  5174 ;;      Totals:         4      10       0       0       0
  5175 ;;Total ram usage:       14 bytes
  5176 ;; Hardware stack levels used:    1
  5177 ;; Hardware stack levels required when called:    1
  5178 ;; This function calls:
  5179 ;;		Nothing
  5180 ;; This function is called by:
  5181 ;;		_Medir
  5182 ;; This function uses a non-reentrant model
  5183 ;;
  5184                           
  5185                           
  5186                           ;psect for function ___xxtofl
  5187  1473                     ___xxtofl:	
  5188                           
  5189                           ;incstack = 0
  5190                           ; Regs used in ___xxtofl: [wreg+status,2+status,0]
  5191                           ;___xxtofl@sign stored from wreg
  5192  1473  1283               	bcf	3,5	;RP0=0, select bank0
  5193  1474  1303               	bcf	3,6	;RP1=0, select bank0
  5194  1475  00A4               	movwf	___xxtofl@sign
  5195  1476                     l4029:	
  5196  1476  0824               	movf	___xxtofl@sign,w
  5197  1477  1903               	btfsc	3,2
  5198  1478  2C7A               	goto	u5431
  5199  1479  2C7B               	goto	u5430
  5200  147A                     u5431:	
  5201  147A  2C8F               	goto	l4035
  5202  147B                     u5430:	
  5203  147B                     l4031:	
  5204  147B  1FF6               	btfss	___xxtofl@val+3,7
  5205  147C  2C7E               	goto	u5441
  5206  147D  2C7F               	goto	u5440
  5207  147E                     u5441:	
  5208  147E  2C8F               	goto	l4035
  5209  147F                     u5440:	
  5210  147F                     l4033:	
  5211  147F  0973               	comf	___xxtofl@val,w
  5212  1480  00A6               	movwf	___xxtofl@arg
  5213  1481  0974               	comf	___xxtofl@val+1,w
  5214  1482  00A7               	movwf	___xxtofl@arg+1
  5215  1483  0975               	comf	___xxtofl@val+2,w
  5216  1484  00A8               	movwf	___xxtofl@arg+2
  5217  1485  0976               	comf	___xxtofl@val+3,w
  5218  1486  00A9               	movwf	___xxtofl@arg+3
  5219  1487  0AA6               	incf	___xxtofl@arg,f
  5220  1488  1903               	skipnz
  5221  1489  0AA7               	incf	___xxtofl@arg+1,f
  5222  148A  1903               	skipnz
  5223  148B  0AA8               	incf	___xxtofl@arg+2,f
  5224  148C  1903               	skipnz
  5225  148D  0AA9               	incf	___xxtofl@arg+3,f
  5226  148E  2C97               	goto	l858
  5227  148F                     l4035:	
  5228  148F  0876               	movf	___xxtofl@val+3,w
  5229  1490  00A9               	movwf	___xxtofl@arg+3
  5230  1491  0875               	movf	___xxtofl@val+2,w
  5231  1492  00A8               	movwf	___xxtofl@arg+2
  5232  1493  0874               	movf	___xxtofl@val+1,w
  5233  1494  00A7               	movwf	___xxtofl@arg+1
  5234  1495  0873               	movf	___xxtofl@val,w
  5235  1496  00A6               	movwf	___xxtofl@arg
  5236  1497                     l858:	
  5237  1497  0876               	movf	___xxtofl@val+3,w
  5238  1498  0475               	iorwf	___xxtofl@val+2,w
  5239  1499  0474               	iorwf	___xxtofl@val+1,w
  5240  149A  0473               	iorwf	___xxtofl@val,w
  5241  149B  1D03               	skipz
  5242  149C  2C9E               	goto	u5451
  5243  149D  2C9F               	goto	u5450
  5244  149E                     u5451:	
  5245  149E  2CA8               	goto	l4041
  5246  149F                     u5450:	
  5247  149F                     l4037:	
  5248  149F  3000               	movlw	0
  5249  14A0  00F6               	movwf	?___xxtofl+3
  5250  14A1  3000               	movlw	0
  5251  14A2  00F5               	movwf	?___xxtofl+2
  5252  14A3  3000               	movlw	0
  5253  14A4  00F4               	movwf	?___xxtofl+1
  5254  14A5  3000               	movlw	0
  5255  14A6  00F3               	movwf	?___xxtofl
  5256  14A7  2D2E               	goto	l860
  5257  14A8                     l4041:	
  5258  14A8  3096               	movlw	150
  5259  14A9  00A0               	movwf	??___xxtofl
  5260  14AA  0820               	movf	??___xxtofl,w
  5261  14AB  00A5               	movwf	___xxtofl@exp
  5262  14AC  2CBA               	goto	l4045
  5263  14AD                     l4043:	
  5264  14AD  3001               	movlw	1
  5265  14AE  00A0               	movwf	??___xxtofl
  5266  14AF  0820               	movf	??___xxtofl,w
  5267  14B0  07A5               	addwf	___xxtofl@exp,f
  5268  14B1  3001               	movlw	1
  5269  14B2                     u5465:	
  5270  14B2  1003               	clrc
  5271  14B3  0CA9               	rrf	___xxtofl@arg+3,f
  5272  14B4  0CA8               	rrf	___xxtofl@arg+2,f
  5273  14B5  0CA7               	rrf	___xxtofl@arg+1,f
  5274  14B6  0CA6               	rrf	___xxtofl@arg,f
  5275  14B7  3EFF               	addlw	-1
  5276  14B8  1D03               	skipz
  5277  14B9  2CB2               	goto	u5465
  5278  14BA                     l4045:	
  5279  14BA  30FE               	movlw	254
  5280  14BB  0529               	andwf	___xxtofl@arg+3,w
  5281  14BC  1D03               	btfss	3,2
  5282  14BD  2CBF               	goto	u5471
  5283  14BE  2CC0               	goto	u5470
  5284  14BF                     u5471:	
  5285  14BF  2CAD               	goto	l4043
  5286  14C0                     u5470:	
  5287  14C0  2CDC               	goto	l864
  5288  14C1                     l4047:	
  5289  14C1  3001               	movlw	1
  5290  14C2  00A0               	movwf	??___xxtofl
  5291  14C3  0820               	movf	??___xxtofl,w
  5292  14C4  07A5               	addwf	___xxtofl@exp,f
  5293  14C5                     l4049:	
  5294  14C5  3001               	movlw	1
  5295  14C6  07A6               	addwf	___xxtofl@arg,f
  5296  14C7  3000               	movlw	0
  5297  14C8  1803               	skipnc
  5298  14C9  3001               	movlw	1
  5299  14CA  07A7               	addwf	___xxtofl@arg+1,f
  5300  14CB  3000               	movlw	0
  5301  14CC  1803               	skipnc
  5302  14CD  3001               	movlw	1
  5303  14CE  07A8               	addwf	___xxtofl@arg+2,f
  5304  14CF  3000               	movlw	0
  5305  14D0  1803               	skipnc
  5306  14D1  3001               	movlw	1
  5307  14D2  07A9               	addwf	___xxtofl@arg+3,f
  5308  14D3                     l4051:	
  5309  14D3  3001               	movlw	1
  5310  14D4                     u5485:	
  5311  14D4  1003               	clrc
  5312  14D5  0CA9               	rrf	___xxtofl@arg+3,f
  5313  14D6  0CA8               	rrf	___xxtofl@arg+2,f
  5314  14D7  0CA7               	rrf	___xxtofl@arg+1,f
  5315  14D8  0CA6               	rrf	___xxtofl@arg,f
  5316  14D9  3EFF               	addlw	-1
  5317  14DA  1D03               	skipz
  5318  14DB  2CD4               	goto	u5485
  5319  14DC                     l864:	
  5320  14DC  30FF               	movlw	255
  5321  14DD  0529               	andwf	___xxtofl@arg+3,w
  5322  14DE  1D03               	btfss	3,2
  5323  14DF  2CE1               	goto	u5491
  5324  14E0  2CE2               	goto	u5490
  5325  14E1                     u5491:	
  5326  14E1  2CC1               	goto	l4047
  5327  14E2                     u5490:	
  5328  14E2  2CEE               	goto	l4055
  5329  14E3                     l4053:	
  5330  14E3  3001               	movlw	1
  5331  14E4  02A5               	subwf	___xxtofl@exp,f
  5332  14E5  3001               	movlw	1
  5333  14E6  00A0               	movwf	??___xxtofl
  5334  14E7                     u5505:	
  5335  14E7  1003               	clrc
  5336  14E8  0DA6               	rlf	___xxtofl@arg,f
  5337  14E9  0DA7               	rlf	___xxtofl@arg+1,f
  5338  14EA  0DA8               	rlf	___xxtofl@arg+2,f
  5339  14EB  0DA9               	rlf	___xxtofl@arg+3,f
  5340  14EC  0BA0               	decfsz	??___xxtofl,f
  5341  14ED  2CE7               	goto	u5505
  5342  14EE                     l4055:	
  5343  14EE  1BA8               	btfsc	___xxtofl@arg+2,7
  5344  14EF  2CF1               	goto	u5511
  5345  14F0  2CF2               	goto	u5510
  5346  14F1                     u5511:	
  5347  14F1  2CF8               	goto	l871
  5348  14F2                     u5510:	
  5349  14F2                     l4057:	
  5350  14F2  3002               	movlw	2
  5351  14F3  0225               	subwf	___xxtofl@exp,w
  5352  14F4  1803               	skipnc
  5353  14F5  2CF7               	goto	u5521
  5354  14F6  2CF8               	goto	u5520
  5355  14F7                     u5521:	
  5356  14F7  2CE3               	goto	l4053
  5357  14F8                     u5520:	
  5358  14F8                     l871:	
  5359  14F8  1825               	btfsc	___xxtofl@exp,0
  5360  14F9  2CFB               	goto	u5531
  5361  14FA  2CFC               	goto	u5530
  5362  14FB                     u5531:	
  5363  14FB  2D04               	goto	l872
  5364  14FC                     u5530:	
  5365  14FC                     l4059:	
  5366  14FC  30FF               	movlw	255
  5367  14FD  05A6               	andwf	___xxtofl@arg,f
  5368  14FE  30FF               	movlw	255
  5369  14FF  05A7               	andwf	___xxtofl@arg+1,f
  5370  1500  307F               	movlw	127
  5371  1501  05A8               	andwf	___xxtofl@arg+2,f
  5372  1502  30FF               	movlw	255
  5373  1503  05A9               	andwf	___xxtofl@arg+3,f
  5374  1504                     l872:	
  5375  1504  1003               	clrc
  5376  1505  0CA5               	rrf	___xxtofl@exp,f
  5377  1506                     l4061:	
  5378  1506  0825               	movf	___xxtofl@exp,w
  5379  1507  00A0               	movwf	??___xxtofl
  5380  1508  01A1               	clrf	??___xxtofl+1
  5381  1509  01A2               	clrf	??___xxtofl+2
  5382  150A  01A3               	clrf	??___xxtofl+3
  5383  150B  3018               	movlw	24
  5384  150C                     u5545:	
  5385  150C  1003               	clrc
  5386  150D  0DA0               	rlf	??___xxtofl,f
  5387  150E  0DA1               	rlf	??___xxtofl+1,f
  5388  150F  0DA2               	rlf	??___xxtofl+2,f
  5389  1510  0DA3               	rlf	??___xxtofl+3,f
  5390  1511                     u5540:	
  5391  1511  3EFF               	addlw	-1
  5392  1512  1D03               	skipz
  5393  1513  2D0C               	goto	u5545
  5394  1514  0820               	movf	??___xxtofl,w
  5395  1515  04A6               	iorwf	___xxtofl@arg,f
  5396  1516  0821               	movf	??___xxtofl+1,w
  5397  1517  04A7               	iorwf	___xxtofl@arg+1,f
  5398  1518  0822               	movf	??___xxtofl+2,w
  5399  1519  04A8               	iorwf	___xxtofl@arg+2,f
  5400  151A  0823               	movf	??___xxtofl+3,w
  5401  151B  04A9               	iorwf	___xxtofl@arg+3,f
  5402  151C                     l4063:	
  5403  151C  0824               	movf	___xxtofl@sign,w
  5404  151D  1903               	btfsc	3,2
  5405  151E  2D20               	goto	u5551
  5406  151F  2D21               	goto	u5550
  5407  1520                     u5551:	
  5408  1520  2D26               	goto	l4069
  5409  1521                     u5550:	
  5410  1521                     l4065:	
  5411  1521  1FF6               	btfss	___xxtofl@val+3,7
  5412  1522  2D24               	goto	u5561
  5413  1523  2D25               	goto	u5560
  5414  1524                     u5561:	
  5415  1524  2D26               	goto	l4069
  5416  1525                     u5560:	
  5417  1525                     l4067:	
  5418  1525  17A9               	bsf	___xxtofl@arg+3,7
  5419  1526                     l4069:	
  5420  1526  0829               	movf	___xxtofl@arg+3,w
  5421  1527  00F6               	movwf	?___xxtofl+3
  5422  1528  0828               	movf	___xxtofl@arg+2,w
  5423  1529  00F5               	movwf	?___xxtofl+2
  5424  152A  0827               	movf	___xxtofl@arg+1,w
  5425  152B  00F4               	movwf	?___xxtofl+1
  5426  152C  0826               	movf	___xxtofl@arg,w
  5427  152D  00F3               	movwf	?___xxtofl
  5428  152E                     l860:	
  5429  152E  0008               	return
  5430  152F                     __end_of___xxtofl:	
  5431                           
  5432                           	psect	text9
  5433  0832                     __ptext9:	
  5434 ;; *************** function ___fldiv *****************
  5435 ;; Defined at:
  5436 ;;		line 8 in file "C:\Program Files (x86)\Microchip\xc8\v2.10\pic\sources\c90\common\sprcdiv.c"
  5437 ;; Parameters:    Size  Location     Type
  5438 ;;  a               4   10[BANK0 ] unsigned char 
  5439 ;;  b               4   14[BANK0 ] unsigned char 
  5440 ;; Auto vars:     Size  Location     Type
  5441 ;;  grs             4   30[BANK0 ] unsigned long 
  5442 ;;  rem             4   23[BANK0 ] unsigned long 
  5443 ;;  new_exp         2   28[BANK0 ] int 
  5444 ;;  aexp            1   35[BANK0 ] unsigned char 
  5445 ;;  bexp            1   34[BANK0 ] unsigned char 
  5446 ;;  sign            1   27[BANK0 ] unsigned char 
  5447 ;; Return value:  Size  Location     Type
  5448 ;;                  4   10[BANK0 ] unsigned char 
  5449 ;; Registers used:
  5450 ;;		wreg, status,2, status,0, btemp+1
  5451 ;; Tracked objects:
  5452 ;;		On entry : 0/0
  5453 ;;		On exit  : 0/0
  5454 ;;		Unchanged: 0/0
  5455 ;; Data sizes:     COMMON   BANK0   BANK1   BANK3   BANK2
  5456 ;;      Params:         0       8       0       0       0
  5457 ;;      Locals:         0      13       0       0       0
  5458 ;;      Temps:          0       5       0       0       0
  5459 ;;      Totals:         0      26       0       0       0
  5460 ;;Total ram usage:       26 bytes
  5461 ;; Hardware stack levels used:    1
  5462 ;; Hardware stack levels required when called:    1
  5463 ;; This function calls:
  5464 ;;		Nothing
  5465 ;; This function is called by:
  5466 ;;		_Medir
  5467 ;; This function uses a non-reentrant model
  5468 ;;
  5469                           
  5470                           
  5471                           ;psect for function ___fldiv
  5472  0832                     ___fldiv:	
  5473  0832                     l2655:	
  5474                           ;incstack = 0
  5475                           ; Regs used in ___fldiv: [wreg+status,2+status,0+btemp+1]
  5476                           
  5477  0832  1283               	bcf	3,5	;RP0=0, select bank0
  5478  0833  1303               	bcf	3,6	;RP1=0, select bank0
  5479  0834  0831               	movf	___fldiv@b+3,w
  5480  0835  3980               	andlw	128
  5481  0836  00B2               	movwf	??___fldiv
  5482  0837  0832               	movf	??___fldiv,w
  5483  0838  00BB               	movwf	___fldiv@sign
  5484  0839                     l2657:	
  5485  0839  0831               	movf	___fldiv@b+3,w
  5486  083A  00B2               	movwf	??___fldiv
  5487  083B  0732               	addwf	??___fldiv,w
  5488  083C  00B3               	movwf	??___fldiv+1
  5489  083D  0833               	movf	??___fldiv+1,w
  5490  083E  00C2               	movwf	___fldiv@bexp
  5491  083F                     l2659:	
  5492  083F  1FB0               	btfss	___fldiv@b+2,7
  5493  0840  2842               	goto	u3021
  5494  0841  2843               	goto	u3020
  5495  0842                     u3021:	
  5496  0842  2844               	goto	l2663
  5497  0843                     u3020:	
  5498  0843                     l2661:	
  5499  0843  1442               	bsf	___fldiv@bexp,0
  5500  0844                     l2663:	
  5501  0844  0842               	movf	___fldiv@bexp,w
  5502  0845  1903               	btfsc	3,2
  5503  0846  2848               	goto	u3031
  5504  0847  2849               	goto	u3030
  5505  0848                     u3031:	
  5506  0848  2859               	goto	l2673
  5507  0849                     u3030:	
  5508  0849                     l2665:	
  5509  0849  0A42               	incf	___fldiv@bexp,w
  5510  084A  1D03               	btfss	3,2
  5511  084B  284D               	goto	u3041
  5512  084C  284E               	goto	u3040
  5513  084D                     u3041:	
  5514  084D  2856               	goto	l2669
  5515  084E                     u3040:	
  5516  084E                     l2667:	
  5517  084E  3000               	movlw	0
  5518  084F  00B1               	movwf	___fldiv@b+3
  5519  0850  3000               	movlw	0
  5520  0851  00B0               	movwf	___fldiv@b+2
  5521  0852  3000               	movlw	0
  5522  0853  00AF               	movwf	___fldiv@b+1
  5523  0854  3000               	movlw	0
  5524  0855  00AE               	movwf	___fldiv@b
  5525  0856                     l2669:	
  5526  0856  17B0               	bsf	___fldiv@b+2,7
  5527  0857                     l2671:	
  5528  0857  01B1               	clrf	___fldiv@b+3
  5529  0858  2861               	goto	l2675
  5530  0859                     l2673:	
  5531  0859  3000               	movlw	0
  5532  085A  00B1               	movwf	___fldiv@b+3
  5533  085B  3000               	movlw	0
  5534  085C  00B0               	movwf	___fldiv@b+2
  5535  085D  3000               	movlw	0
  5536  085E  00AF               	movwf	___fldiv@b+1
  5537  085F  3000               	movlw	0
  5538  0860  00AE               	movwf	___fldiv@b
  5539  0861                     l2675:	
  5540  0861  082D               	movf	___fldiv@a+3,w
  5541  0862  3980               	andlw	128
  5542  0863  00B2               	movwf	??___fldiv
  5543  0864  0832               	movf	??___fldiv,w
  5544  0865  06BB               	xorwf	___fldiv@sign,f
  5545  0866                     l2677:	
  5546  0866  082D               	movf	___fldiv@a+3,w
  5547  0867  00B2               	movwf	??___fldiv
  5548  0868  0732               	addwf	??___fldiv,w
  5549  0869  00B3               	movwf	??___fldiv+1
  5550  086A  0833               	movf	??___fldiv+1,w
  5551  086B  00C3               	movwf	___fldiv@aexp
  5552  086C                     l2679:	
  5553  086C  1FAC               	btfss	___fldiv@a+2,7
  5554  086D  286F               	goto	u3051
  5555  086E  2870               	goto	u3050
  5556  086F                     u3051:	
  5557  086F  2871               	goto	l2683
  5558  0870                     u3050:	
  5559  0870                     l2681:	
  5560  0870  1443               	bsf	___fldiv@aexp,0
  5561  0871                     l2683:	
  5562  0871  0843               	movf	___fldiv@aexp,w
  5563  0872  1903               	btfsc	3,2
  5564  0873  2875               	goto	u3061
  5565  0874  2876               	goto	u3060
  5566  0875                     u3061:	
  5567  0875  2886               	goto	l2693
  5568  0876                     u3060:	
  5569  0876                     l2685:	
  5570  0876  0A43               	incf	___fldiv@aexp,w
  5571  0877  1D03               	btfss	3,2
  5572  0878  287A               	goto	u3071
  5573  0879  287B               	goto	u3070
  5574  087A                     u3071:	
  5575  087A  2883               	goto	l2689
  5576  087B                     u3070:	
  5577  087B                     l2687:	
  5578  087B  3000               	movlw	0
  5579  087C  00AD               	movwf	___fldiv@a+3
  5580  087D  3000               	movlw	0
  5581  087E  00AC               	movwf	___fldiv@a+2
  5582  087F  3000               	movlw	0
  5583  0880  00AB               	movwf	___fldiv@a+1
  5584  0881  3000               	movlw	0
  5585  0882  00AA               	movwf	___fldiv@a
  5586  0883                     l2689:	
  5587  0883  17AC               	bsf	___fldiv@a+2,7
  5588  0884                     l2691:	
  5589  0884  01AD               	clrf	___fldiv@a+3
  5590  0885  288E               	goto	l780
  5591  0886                     l2693:	
  5592  0886  3000               	movlw	0
  5593  0887  00AD               	movwf	___fldiv@a+3
  5594  0888  3000               	movlw	0
  5595  0889  00AC               	movwf	___fldiv@a+2
  5596  088A  3000               	movlw	0
  5597  088B  00AB               	movwf	___fldiv@a+1
  5598  088C  3000               	movlw	0
  5599  088D  00AA               	movwf	___fldiv@a
  5600  088E                     l780:	
  5601  088E  082D               	movf	___fldiv@a+3,w
  5602  088F  042C               	iorwf	___fldiv@a+2,w
  5603  0890  042B               	iorwf	___fldiv@a+1,w
  5604  0891  042A               	iorwf	___fldiv@a,w
  5605  0892  1D03               	skipz
  5606  0893  2895               	goto	u3081
  5607  0894  2896               	goto	u3080
  5608  0895                     u3081:	
  5609  0895  28AF               	goto	l2703
  5610  0896                     u3080:	
  5611  0896                     l2695:	
  5612  0896  3000               	movlw	0
  5613  0897  00B1               	movwf	___fldiv@b+3
  5614  0898  3000               	movlw	0
  5615  0899  00B0               	movwf	___fldiv@b+2
  5616  089A  3000               	movlw	0
  5617  089B  00AF               	movwf	___fldiv@b+1
  5618  089C  3000               	movlw	0
  5619  089D  00AE               	movwf	___fldiv@b
  5620  089E  3080               	movlw	128
  5621  089F  04B0               	iorwf	___fldiv@b+2,f
  5622  08A0  307F               	movlw	127
  5623  08A1  04B1               	iorwf	___fldiv@b+3,f
  5624  08A2                     l2697:	
  5625  08A2  083B               	movf	___fldiv@sign,w
  5626  08A3  00B2               	movwf	??___fldiv
  5627  08A4  0832               	movf	??___fldiv,w
  5628  08A5  04B1               	iorwf	___fldiv@b+3,f
  5629  08A6                     l2699:	
  5630  08A6  0831               	movf	___fldiv@b+3,w
  5631  08A7  00AD               	movwf	?___fldiv+3
  5632  08A8  0830               	movf	___fldiv@b+2,w
  5633  08A9  00AC               	movwf	?___fldiv+2
  5634  08AA  082F               	movf	___fldiv@b+1,w
  5635  08AB  00AB               	movwf	?___fldiv+1
  5636  08AC  082E               	movf	___fldiv@b,w
  5637  08AD  00AA               	movwf	?___fldiv
  5638  08AE  2A0E               	goto	l782
  5639  08AF                     l2703:	
  5640  08AF  0842               	movf	___fldiv@bexp,w
  5641  08B0  1D03               	btfss	3,2
  5642  08B1  28B3               	goto	u3091
  5643  08B2  28B4               	goto	u3090
  5644  08B3                     u3091:	
  5645  08B3  28BD               	goto	l2709
  5646  08B4                     u3090:	
  5647  08B4                     l2705:	
  5648  08B4  3000               	movlw	0
  5649  08B5  00AD               	movwf	?___fldiv+3
  5650  08B6  3000               	movlw	0
  5651  08B7  00AC               	movwf	?___fldiv+2
  5652  08B8  3000               	movlw	0
  5653  08B9  00AB               	movwf	?___fldiv+1
  5654  08BA  3000               	movlw	0
  5655  08BB  00AA               	movwf	?___fldiv
  5656  08BC  2A0E               	goto	l782
  5657  08BD                     l2709:	
  5658  08BD  0842               	movf	___fldiv@bexp,w
  5659  08BE  00B2               	movwf	??___fldiv
  5660  08BF  01B3               	clrf	??___fldiv+1
  5661  08C0  0833               	movf	??___fldiv+1,w
  5662  08C1  00B5               	movwf	??___fldiv+3
  5663  08C2  0843               	movf	___fldiv@aexp,w
  5664  08C3  0232               	subwf	??___fldiv,w
  5665  08C4  00B4               	movwf	??___fldiv+2
  5666  08C5  1C03               	skipc
  5667  08C6  03B5               	decf	??___fldiv+3,f
  5668  08C7  0834               	movf	??___fldiv+2,w
  5669  08C8  3E7F               	addlw	127
  5670  08C9  00BC               	movwf	___fldiv@new_exp
  5671  08CA  0835               	movf	??___fldiv+3,w
  5672  08CB  1803               	skipnc
  5673  08CC  3E01               	addlw	1
  5674  08CD  3E00               	addlw	0
  5675  08CE  00BD               	movwf	___fldiv@new_exp+1
  5676  08CF                     l2711:	
  5677  08CF  0831               	movf	___fldiv@b+3,w
  5678  08D0  00BA               	movwf	___fldiv@rem+3
  5679  08D1  0830               	movf	___fldiv@b+2,w
  5680  08D2  00B9               	movwf	___fldiv@rem+2
  5681  08D3  082F               	movf	___fldiv@b+1,w
  5682  08D4  00B8               	movwf	___fldiv@rem+1
  5683  08D5  082E               	movf	___fldiv@b,w
  5684  08D6  00B7               	movwf	___fldiv@rem
  5685  08D7                     l2713:	
  5686  08D7  3000               	movlw	0
  5687  08D8  00B1               	movwf	___fldiv@b+3
  5688  08D9  3000               	movlw	0
  5689  08DA  00B0               	movwf	___fldiv@b+2
  5690  08DB  3000               	movlw	0
  5691  08DC  00AF               	movwf	___fldiv@b+1
  5692  08DD  3000               	movlw	0
  5693  08DE  00AE               	movwf	___fldiv@b
  5694  08DF                     l2715:	
  5695  08DF  3000               	movlw	0
  5696  08E0  00C1               	movwf	___fldiv@grs+3
  5697  08E1  3000               	movlw	0
  5698  08E2  00C0               	movwf	___fldiv@grs+2
  5699  08E3  3000               	movlw	0
  5700  08E4  00BF               	movwf	___fldiv@grs+1
  5701  08E5  3000               	movlw	0
  5702  08E6  00BE               	movwf	___fldiv@grs
  5703  08E7                     l2717:	
  5704  08E7  01C3               	clrf	___fldiv@aexp
  5705  08E8  2933               	goto	l2737
  5706  08E9                     l2719:	
  5707  08E9  0843               	movf	___fldiv@aexp,w
  5708  08EA  1903               	btfsc	3,2
  5709  08EB  28ED               	goto	u3101
  5710  08EC  28EE               	goto	u3100
  5711  08ED                     u3101:	
  5712  08ED  290E               	goto	l2729
  5713  08EE                     u3100:	
  5714  08EE                     l2721:	
  5715  08EE  3001               	movlw	1
  5716  08EF  00B2               	movwf	??___fldiv
  5717  08F0                     u3115:	
  5718  08F0  1003               	clrc
  5719  08F1  0DB7               	rlf	___fldiv@rem,f
  5720  08F2  0DB8               	rlf	___fldiv@rem+1,f
  5721  08F3  0DB9               	rlf	___fldiv@rem+2,f
  5722  08F4  0DBA               	rlf	___fldiv@rem+3,f
  5723  08F5  0BB2               	decfsz	??___fldiv,f
  5724  08F6  28F0               	goto	u3115
  5725  08F7  3001               	movlw	1
  5726  08F8  00B2               	movwf	??___fldiv
  5727  08F9                     u3125:	
  5728  08F9  1003               	clrc
  5729  08FA  0DAE               	rlf	___fldiv@b,f
  5730  08FB  0DAF               	rlf	___fldiv@b+1,f
  5731  08FC  0DB0               	rlf	___fldiv@b+2,f
  5732  08FD  0DB1               	rlf	___fldiv@b+3,f
  5733  08FE  0BB2               	decfsz	??___fldiv,f
  5734  08FF  28F9               	goto	u3125
  5735  0900                     l2723:	
  5736  0900  1FC1               	btfss	___fldiv@grs+3,7
  5737  0901  2903               	goto	u3131
  5738  0902  2904               	goto	u3130
  5739  0903                     u3131:	
  5740  0903  2905               	goto	l2727
  5741  0904                     u3130:	
  5742  0904                     l2725:	
  5743  0904  142E               	bsf	___fldiv@b,0
  5744  0905                     l2727:	
  5745  0905  3001               	movlw	1
  5746  0906  00B2               	movwf	??___fldiv
  5747  0907                     u3145:	
  5748  0907  1003               	clrc
  5749  0908  0DBE               	rlf	___fldiv@grs,f
  5750  0909  0DBF               	rlf	___fldiv@grs+1,f
  5751  090A  0DC0               	rlf	___fldiv@grs+2,f
  5752  090B  0DC1               	rlf	___fldiv@grs+3,f
  5753  090C  0BB2               	decfsz	??___fldiv,f
  5754  090D  2907               	goto	u3145
  5755  090E                     l2729:	
  5756  090E  082D               	movf	___fldiv@a+3,w
  5757  090F  023A               	subwf	___fldiv@rem+3,w
  5758  0910  1D03               	skipz
  5759  0911  291C               	goto	u3155
  5760  0912  082C               	movf	___fldiv@a+2,w
  5761  0913  0239               	subwf	___fldiv@rem+2,w
  5762  0914  1D03               	skipz
  5763  0915  291C               	goto	u3155
  5764  0916  082B               	movf	___fldiv@a+1,w
  5765  0917  0238               	subwf	___fldiv@rem+1,w
  5766  0918  1D03               	skipz
  5767  0919  291C               	goto	u3155
  5768  091A  082A               	movf	___fldiv@a,w
  5769  091B  0237               	subwf	___fldiv@rem,w
  5770  091C                     u3155:	
  5771  091C  1C03               	skipc
  5772  091D  291F               	goto	u3151
  5773  091E  2920               	goto	u3150
  5774  091F                     u3151:	
  5775  091F  292F               	goto	l2735
  5776  0920                     u3150:	
  5777  0920                     l2731:	
  5778  0920  1741               	bsf	___fldiv@grs+3,6
  5779  0921                     l2733:	
  5780  0921  082A               	movf	___fldiv@a,w
  5781  0922  02B7               	subwf	___fldiv@rem,f
  5782  0923  082B               	movf	___fldiv@a+1,w
  5783  0924  1C03               	skipc
  5784  0925  0F2B               	incfsz	___fldiv@a+1,w
  5785  0926  02B8               	subwf	___fldiv@rem+1,f
  5786  0927  082C               	movf	___fldiv@a+2,w
  5787  0928  1C03               	skipc
  5788  0929  0F2C               	incfsz	___fldiv@a+2,w
  5789  092A  02B9               	subwf	___fldiv@rem+2,f
  5790  092B  082D               	movf	___fldiv@a+3,w
  5791  092C  1C03               	skipc
  5792  092D  0F2D               	incfsz	___fldiv@a+3,w
  5793  092E  02BA               	subwf	___fldiv@rem+3,f
  5794  092F                     l2735:	
  5795  092F  3001               	movlw	1
  5796  0930  00B2               	movwf	??___fldiv
  5797  0931  0832               	movf	??___fldiv,w
  5798  0932  07C3               	addwf	___fldiv@aexp,f
  5799  0933                     l2737:	
  5800  0933  301A               	movlw	26
  5801  0934  0243               	subwf	___fldiv@aexp,w
  5802  0935  1C03               	skipc
  5803  0936  2938               	goto	u3161
  5804  0937  2939               	goto	u3160
  5805  0938                     u3161:	
  5806  0938  28E9               	goto	l2719
  5807  0939                     u3160:	
  5808  0939                     l2739:	
  5809  0939  083A               	movf	___fldiv@rem+3,w
  5810  093A  0439               	iorwf	___fldiv@rem+2,w
  5811  093B  0438               	iorwf	___fldiv@rem+1,w
  5812  093C  0437               	iorwf	___fldiv@rem,w
  5813  093D  1903               	skipnz
  5814  093E  2940               	goto	u3171
  5815  093F  2941               	goto	u3170
  5816  0940                     u3171:	
  5817  0940  2960               	goto	l2753
  5818  0941                     u3170:	
  5819  0941                     l2741:	
  5820  0941  143E               	bsf	___fldiv@grs,0
  5821  0942  2960               	goto	l2753
  5822  0943                     l2743:	
  5823  0943  3001               	movlw	1
  5824  0944  00B2               	movwf	??___fldiv
  5825  0945                     u3185:	
  5826  0945  1003               	clrc
  5827  0946  0DAE               	rlf	___fldiv@b,f
  5828  0947  0DAF               	rlf	___fldiv@b+1,f
  5829  0948  0DB0               	rlf	___fldiv@b+2,f
  5830  0949  0DB1               	rlf	___fldiv@b+3,f
  5831  094A  0BB2               	decfsz	??___fldiv,f
  5832  094B  2945               	goto	u3185
  5833  094C                     l2745:	
  5834  094C  1FC1               	btfss	___fldiv@grs+3,7
  5835  094D  294F               	goto	u3191
  5836  094E  2950               	goto	u3190
  5837  094F                     u3191:	
  5838  094F  2951               	goto	l2749
  5839  0950                     u3190:	
  5840  0950                     l2747:	
  5841  0950  142E               	bsf	___fldiv@b,0
  5842  0951                     l2749:	
  5843  0951  3001               	movlw	1
  5844  0952  00B2               	movwf	??___fldiv
  5845  0953                     u3205:	
  5846  0953  1003               	clrc
  5847  0954  0DBE               	rlf	___fldiv@grs,f
  5848  0955  0DBF               	rlf	___fldiv@grs+1,f
  5849  0956  0DC0               	rlf	___fldiv@grs+2,f
  5850  0957  0DC1               	rlf	___fldiv@grs+3,f
  5851  0958  0BB2               	decfsz	??___fldiv,f
  5852  0959  2953               	goto	u3205
  5853  095A                     l2751:	
  5854  095A  30FF               	movlw	255
  5855  095B  07BC               	addwf	___fldiv@new_exp,f
  5856  095C  1803               	skipnc
  5857  095D  0ABD               	incf	___fldiv@new_exp+1,f
  5858  095E  30FF               	movlw	255
  5859  095F  07BD               	addwf	___fldiv@new_exp+1,f
  5860  0960                     l2753:	
  5861  0960  1FB0               	btfss	___fldiv@b+2,7
  5862  0961  2963               	goto	u3211
  5863  0962  2964               	goto	u3210
  5864  0963                     u3211:	
  5865  0963  2943               	goto	l2743
  5866  0964                     u3210:	
  5867  0964                     l2755:	
  5868  0964  01C3               	clrf	___fldiv@aexp
  5869  0965                     l2757:	
  5870  0965  1FC1               	btfss	___fldiv@grs+3,7
  5871  0966  2968               	goto	u3221
  5872  0967  2969               	goto	u3220
  5873  0968                     u3221:	
  5874  0968  2985               	goto	l2765
  5875  0969                     u3220:	
  5876  0969                     l2759:	
  5877  0969  30FF               	movlw	255
  5878  096A  053E               	andwf	___fldiv@grs,w
  5879  096B  00B2               	movwf	??___fldiv
  5880  096C  30FF               	movlw	255
  5881  096D  053F               	andwf	___fldiv@grs+1,w
  5882  096E  00B3               	movwf	??___fldiv+1
  5883  096F  30FF               	movlw	255
  5884  0970  0540               	andwf	___fldiv@grs+2,w
  5885  0971  00B4               	movwf	??___fldiv+2
  5886  0972  307F               	movlw	127
  5887  0973  0541               	andwf	___fldiv@grs+3,w
  5888  0974  00B5               	movwf	??___fldiv+3
  5889  0975  0835               	movf	??___fldiv+3,w
  5890  0976  0434               	iorwf	??___fldiv+2,w
  5891  0977  0433               	iorwf	??___fldiv+1,w
  5892  0978  0432               	iorwf	??___fldiv,w
  5893  0979  1903               	skipnz
  5894  097A  297C               	goto	u3231
  5895  097B  297D               	goto	u3230
  5896  097C                     u3231:	
  5897  097C  2980               	goto	l796
  5898  097D                     u3230:	
  5899  097D                     l2761:	
  5900  097D  01C3               	clrf	___fldiv@aexp
  5901  097E  0AC3               	incf	___fldiv@aexp,f
  5902  097F  2985               	goto	l2765
  5903  0980                     l796:	
  5904  0980  1C2E               	btfss	___fldiv@b,0
  5905  0981  2983               	goto	u3241
  5906  0982  2984               	goto	u3240
  5907  0983                     u3241:	
  5908  0983  2985               	goto	l2765
  5909  0984                     u3240:	
  5910  0984  297D               	goto	l2761
  5911  0985                     l2765:	
  5912  0985  0843               	movf	___fldiv@aexp,w
  5913  0986  1903               	btfsc	3,2
  5914  0987  2989               	goto	u3251
  5915  0988  298A               	goto	u3250
  5916  0989                     u3251:	
  5917  0989  29BB               	goto	l2775
  5918  098A                     u3250:	
  5919  098A                     l2767:	
  5920  098A  3001               	movlw	1
  5921  098B  07AE               	addwf	___fldiv@b,f
  5922  098C  3000               	movlw	0
  5923  098D  1803               	skipnc
  5924  098E  3001               	movlw	1
  5925  098F  07AF               	addwf	___fldiv@b+1,f
  5926  0990  3000               	movlw	0
  5927  0991  1803               	skipnc
  5928  0992  3001               	movlw	1
  5929  0993  07B0               	addwf	___fldiv@b+2,f
  5930  0994  3000               	movlw	0
  5931  0995  1803               	skipnc
  5932  0996  3001               	movlw	1
  5933  0997  07B1               	addwf	___fldiv@b+3,f
  5934  0998                     l2769:	
  5935  0998  1C31               	btfss	___fldiv@b+3,0
  5936  0999  299B               	goto	u3261
  5937  099A  299C               	goto	u3260
  5938  099B                     u3261:	
  5939  099B  29BB               	goto	l2775
  5940  099C                     u3260:	
  5941  099C                     l2771:	
  5942  099C  082E               	movf	___fldiv@b,w
  5943  099D  00B2               	movwf	??___fldiv
  5944  099E  082F               	movf	___fldiv@b+1,w
  5945  099F  00B3               	movwf	??___fldiv+1
  5946  09A0  0830               	movf	___fldiv@b+2,w
  5947  09A1  00B4               	movwf	??___fldiv+2
  5948  09A2  0831               	movf	___fldiv@b+3,w
  5949  09A3  00B5               	movwf	??___fldiv+3
  5950  09A4  3001               	movlw	1
  5951  09A5  00B6               	movwf	??___fldiv+4
  5952  09A6                     u3275:	
  5953  09A6  0D35               	rlf	??___fldiv+3,w
  5954  09A7  0CB5               	rrf	??___fldiv+3,f
  5955  09A8  0CB4               	rrf	??___fldiv+2,f
  5956  09A9  0CB3               	rrf	??___fldiv+1,f
  5957  09AA  0CB2               	rrf	??___fldiv,f
  5958  09AB                     u3270:	
  5959  09AB  0BB6               	decfsz	??___fldiv+4,f
  5960  09AC  29A6               	goto	u3275
  5961  09AD  0835               	movf	??___fldiv+3,w
  5962  09AE  00B1               	movwf	___fldiv@b+3
  5963  09AF  0834               	movf	??___fldiv+2,w
  5964  09B0  00B0               	movwf	___fldiv@b+2
  5965  09B1  0833               	movf	??___fldiv+1,w
  5966  09B2  00AF               	movwf	___fldiv@b+1
  5967  09B3  0832               	movf	??___fldiv,w
  5968  09B4  00AE               	movwf	___fldiv@b
  5969  09B5                     l2773:	
  5970  09B5  3001               	movlw	1
  5971  09B6  07BC               	addwf	___fldiv@new_exp,f
  5972  09B7  1803               	skipnc
  5973  09B8  0ABD               	incf	___fldiv@new_exp+1,f
  5974  09B9  3000               	movlw	0
  5975  09BA  07BD               	addwf	___fldiv@new_exp+1,f
  5976  09BB                     l2775:	
  5977  09BB  083D               	movf	___fldiv@new_exp+1,w
  5978  09BC  3A80               	xorlw	128
  5979  09BD  00FF               	movwf	btemp+1
  5980  09BE  3080               	movlw	128
  5981  09BF  027F               	subwf	btemp+1,w
  5982  09C0  1D03               	skipz
  5983  09C1  29C4               	goto	u3285
  5984  09C2  30FF               	movlw	255
  5985  09C3  023C               	subwf	___fldiv@new_exp,w
  5986  09C4                     u3285:	
  5987  09C4  1C03               	skipc
  5988  09C5  29C7               	goto	u3281
  5989  09C6  29C8               	goto	u3280
  5990  09C7                     u3281:	
  5991  09C7  29D6               	goto	l2779
  5992  09C8                     u3280:	
  5993  09C8                     l2777:	
  5994  09C8  30FF               	movlw	255
  5995  09C9  1283               	bcf	3,5	;RP0=0, select bank0
  5996  09CA  1303               	bcf	3,6	;RP1=0, select bank0
  5997  09CB  00BC               	movwf	___fldiv@new_exp
  5998  09CC  3000               	movlw	0
  5999  09CD  00BD               	movwf	___fldiv@new_exp+1
  6000  09CE  3000               	movlw	0
  6001  09CF  00B1               	movwf	___fldiv@b+3
  6002  09D0  3000               	movlw	0
  6003  09D1  00B0               	movwf	___fldiv@b+2
  6004  09D2  3000               	movlw	0
  6005  09D3  00AF               	movwf	___fldiv@b+1
  6006  09D4  3000               	movlw	0
  6007  09D5  00AE               	movwf	___fldiv@b
  6008  09D6                     l2779:	
  6009  09D6  1283               	bcf	3,5	;RP0=0, select bank0
  6010  09D7  1303               	bcf	3,6	;RP1=0, select bank0
  6011  09D8  083D               	movf	___fldiv@new_exp+1,w
  6012  09D9  3A80               	xorlw	128
  6013  09DA  00FF               	movwf	btemp+1
  6014  09DB  3080               	movlw	128
  6015  09DC  027F               	subwf	btemp+1,w
  6016  09DD  1D03               	skipz
  6017  09DE  29E1               	goto	u3295
  6018  09DF  3001               	movlw	1
  6019  09E0  023C               	subwf	___fldiv@new_exp,w
  6020  09E1                     u3295:	
  6021  09E1  1803               	skipnc
  6022  09E2  29E4               	goto	u3291
  6023  09E3  29E5               	goto	u3290
  6024  09E4                     u3291:	
  6025  09E4  29F2               	goto	l802
  6026  09E5                     u3290:	
  6027  09E5                     l2781:	
  6028  09E5  1283               	bcf	3,5	;RP0=0, select bank0
  6029  09E6  1303               	bcf	3,6	;RP1=0, select bank0
  6030  09E7  01BC               	clrf	___fldiv@new_exp
  6031  09E8  01BD               	clrf	___fldiv@new_exp+1
  6032  09E9                     l2783:	
  6033  09E9  3000               	movlw	0
  6034  09EA  00B1               	movwf	___fldiv@b+3
  6035  09EB  3000               	movlw	0
  6036  09EC  00B0               	movwf	___fldiv@b+2
  6037  09ED  3000               	movlw	0
  6038  09EE  00AF               	movwf	___fldiv@b+1
  6039  09EF  3000               	movlw	0
  6040  09F0  00AE               	movwf	___fldiv@b
  6041  09F1                     l2785:	
  6042  09F1  01BB               	clrf	___fldiv@sign
  6043  09F2                     l802:	
  6044  09F2  1283               	bcf	3,5	;RP0=0, select bank0
  6045  09F3  1303               	bcf	3,6	;RP1=0, select bank0
  6046  09F4  083C               	movf	___fldiv@new_exp,w
  6047  09F5  00B2               	movwf	??___fldiv
  6048  09F6  0832               	movf	??___fldiv,w
  6049  09F7  00C2               	movwf	___fldiv@bexp
  6050  09F8                     l2787:	
  6051  09F8  1C42               	btfss	___fldiv@bexp,0
  6052  09F9  29FB               	goto	u3301
  6053  09FA  29FC               	goto	u3300
  6054  09FB                     u3301:	
  6055  09FB  29FE               	goto	l2791
  6056  09FC                     u3300:	
  6057  09FC                     l2789:	
  6058  09FC  17B0               	bsf	___fldiv@b+2,7
  6059  09FD  2A02               	goto	l804
  6060  09FE                     l2791:	
  6061  09FE  307F               	movlw	127
  6062  09FF  00B2               	movwf	??___fldiv
  6063  0A00  0832               	movf	??___fldiv,w
  6064  0A01  05B0               	andwf	___fldiv@b+2,f
  6065  0A02                     l804:	
  6066  0A02  0842               	movf	___fldiv@bexp,w
  6067  0A03  00B2               	movwf	??___fldiv
  6068  0A04  1003               	clrc
  6069  0A05  0C32               	rrf	??___fldiv,w
  6070  0A06  00B3               	movwf	??___fldiv+1
  6071  0A07  0833               	movf	??___fldiv+1,w
  6072  0A08  00B1               	movwf	___fldiv@b+3
  6073  0A09  083B               	movf	___fldiv@sign,w
  6074  0A0A  00B2               	movwf	??___fldiv
  6075  0A0B  0832               	movf	??___fldiv,w
  6076  0A0C  04B1               	iorwf	___fldiv@b+3,f
  6077  0A0D  28A6               	goto	l2699
  6078  0A0E                     l782:	
  6079  0A0E  0008               	return
  6080  0A0F                     __end_of___fldiv:	
  6081                           
  6082                           	psect	text10
  6083  0693                     __ptext10:	
  6084 ;; *************** function _MotorPasos *****************
  6085 ;; Defined at:
  6086 ;;		line 312 in file "Codigo_TT2_01.c"
  6087 ;; Parameters:    Size  Location     Type
  6088 ;;  motor_p         2    0[BANK0 ] int 
  6089 ;;  pasos           2    2[BANK0 ] int 
  6090 ;;  sentido         2    4[BANK0 ] int 
  6091 ;;  tipo            2    6[BANK0 ] int 
  6092 ;;  num             2    8[BANK0 ] int 
  6093 ;;  retardo         2   10[BANK0 ] int 
  6094 ;; Auto vars:     Size  Location     Type
  6095 ;;  i               2   12[BANK0 ] int 
  6096 ;;  n               2   16[BANK0 ] int 
  6097 ;;  paso            2   14[BANK0 ] int 
  6098 ;; Return value:  Size  Location     Type
  6099 ;;                  2    0[BANK0 ] int 
  6100 ;; Registers used:
  6101 ;;		wreg, fsr0l, fsr0h, status,2, status,0, btemp+1
  6102 ;; Tracked objects:
  6103 ;;		On entry : 0/0
  6104 ;;		On exit  : 0/0
  6105 ;;		Unchanged: 0/0
  6106 ;; Data sizes:     COMMON   BANK0   BANK1   BANK3   BANK2
  6107 ;;      Params:         0      12       0       0       0
  6108 ;;      Locals:         0       6       0       0       0
  6109 ;;      Temps:          2       0       0       0       0
  6110 ;;      Totals:         2      18       0       0       0
  6111 ;;Total ram usage:       20 bytes
  6112 ;; Hardware stack levels used:    1
  6113 ;; Hardware stack levels required when called:    1
  6114 ;; This function calls:
  6115 ;;		Nothing
  6116 ;; This function is called by:
  6117 ;;		_main
  6118 ;; This function uses a non-reentrant model
  6119 ;;
  6120                           
  6121                           
  6122                           ;psect for function _MotorPasos
  6123  0693                     _MotorPasos:	
  6124  0693                     l4377:	
  6125                           ;incstack = 0
  6126                           ; Regs used in _MotorPasos: [wreg-fsr0h+status,2+status,0+btemp+1]
  6127                           
  6128                           
  6129                           ;Codigo_TT2_01.c: 313:     int paso, n;;Codigo_TT2_01.c: 314:     n = motor_p;
  6130  0693  1283               	bcf	3,5	;RP0=0, select bank0
  6131  0694  1303               	bcf	3,6	;RP1=0, select bank0
  6132  0695  0821               	movf	MotorPasos@motor_p+1,w
  6133  0696  00B1               	movwf	MotorPasos@n+1
  6134  0697  0820               	movf	MotorPasos@motor_p,w
  6135  0698  00B0               	movwf	MotorPasos@n
  6136  0699                     l4379:	
  6137                           
  6138                           ;Codigo_TT2_01.c: 315:     for(int i = 0; i < pasos;i++){
  6139  0699  01AC               	clrf	MotorPasos@i
  6140  069A  01AD               	clrf	MotorPasos@i+1
  6141  069B  2F97               	goto	l246
  6142  069C                     l4381:	
  6143                           
  6144                           ;Codigo_TT2_01.c: 316:         if (sentido == 1){
  6145  069C  1283               	bcf	3,5	;RP0=0, select bank0
  6146  069D  1303               	bcf	3,6	;RP1=0, select bank0
  6147  069E  0324               	decf	MotorPasos@sentido,w
  6148  069F  0425               	iorwf	MotorPasos@sentido+1,w
  6149  06A0  1D03               	btfss	3,2
  6150  06A1  2EA3               	goto	u6141
  6151  06A2  2EA4               	goto	u6140
  6152  06A3                     u6141:	
  6153  06A3  2EC1               	goto	l4389
  6154  06A4                     u6140:	
  6155  06A4                     l4383:	
  6156                           
  6157                           ;Codigo_TT2_01.c: 317:             if(n >= 4) n = 1;
  6158  06A4  0831               	movf	MotorPasos@n+1,w
  6159  06A5  3A80               	xorlw	128
  6160  06A6  00FF               	movwf	btemp+1
  6161  06A7  3080               	movlw	128
  6162  06A8  027F               	subwf	btemp+1,w
  6163  06A9  1D03               	skipz
  6164  06AA  2EAD               	goto	u6155
  6165  06AB  3004               	movlw	4
  6166  06AC  0230               	subwf	MotorPasos@n,w
  6167  06AD                     u6155:	
  6168  06AD  1C03               	skipc
  6169  06AE  2EB0               	goto	u6151
  6170  06AF  2EB1               	goto	u6150
  6171  06B0                     u6151:	
  6172  06B0  2EB8               	goto	l4387
  6173  06B1                     u6150:	
  6174  06B1                     l4385:	
  6175  06B1  3001               	movlw	1
  6176  06B2  1283               	bcf	3,5	;RP0=0, select bank0
  6177  06B3  1303               	bcf	3,6	;RP1=0, select bank0
  6178  06B4  00B0               	movwf	MotorPasos@n
  6179  06B5  3000               	movlw	0
  6180  06B6  00B1               	movwf	MotorPasos@n+1
  6181  06B7  2F1E               	goto	l4419
  6182  06B8                     l4387:	
  6183  06B8  3001               	movlw	1
  6184  06B9  1283               	bcf	3,5	;RP0=0, select bank0
  6185  06BA  1303               	bcf	3,6	;RP1=0, select bank0
  6186  06BB  07B0               	addwf	MotorPasos@n,f
  6187  06BC  1803               	skipnc
  6188  06BD  0AB1               	incf	MotorPasos@n+1,f
  6189  06BE  3000               	movlw	0
  6190  06BF  07B1               	addwf	MotorPasos@n+1,f
  6191  06C0  2F1E               	goto	l4419
  6192  06C1                     l4389:	
  6193                           
  6194                           ;Codigo_TT2_01.c: 321:             if(n <= 1) n = 4;
  6195  06C1  0831               	movf	MotorPasos@n+1,w
  6196  06C2  3A80               	xorlw	128
  6197  06C3  00FF               	movwf	btemp+1
  6198  06C4  3080               	movlw	128
  6199  06C5  027F               	subwf	btemp+1,w
  6200  06C6  1D03               	skipz
  6201  06C7  2ECA               	goto	u6165
  6202  06C8  3002               	movlw	2
  6203  06C9  0230               	subwf	MotorPasos@n,w
  6204  06CA                     u6165:	
  6205  06CA  1803               	skipnc
  6206  06CB  2ECD               	goto	u6161
  6207  06CC  2ECE               	goto	u6160
  6208  06CD                     u6161:	
  6209  06CD  2ED5               	goto	l4393
  6210  06CE                     u6160:	
  6211  06CE                     l4391:	
  6212  06CE  3004               	movlw	4
  6213  06CF  1283               	bcf	3,5	;RP0=0, select bank0
  6214  06D0  1303               	bcf	3,6	;RP1=0, select bank0
  6215  06D1  00B0               	movwf	MotorPasos@n
  6216  06D2  3000               	movlw	0
  6217  06D3  00B1               	movwf	MotorPasos@n+1
  6218  06D4  2F1E               	goto	l4419
  6219  06D5                     l4393:	
  6220  06D5  30FF               	movlw	255
  6221  06D6  1283               	bcf	3,5	;RP0=0, select bank0
  6222  06D7  1303               	bcf	3,6	;RP1=0, select bank0
  6223  06D8  07B0               	addwf	MotorPasos@n,f
  6224  06D9  1803               	skipnc
  6225  06DA  0AB1               	incf	MotorPasos@n+1,f
  6226  06DB  30FF               	movlw	255
  6227  06DC  07B1               	addwf	MotorPasos@n+1,f
  6228  06DD  2F1E               	goto	l4419
  6229  06DE                     l4395:	
  6230                           
  6231                           ;Codigo_TT2_01.c: 326:                 if (tipo == 1) paso = 0b1010;
  6232  06DE  0326               	decf	MotorPasos@tipo,w
  6233  06DF  0427               	iorwf	MotorPasos@tipo+1,w
  6234  06E0  1D03               	btfss	3,2
  6235  06E1  2EE3               	goto	u6171
  6236  06E2  2EE4               	goto	u6170
  6237  06E3                     u6171:	
  6238  06E3  2EE9               	goto	l4399
  6239  06E4                     u6170:	
  6240  06E4                     l4397:	
  6241  06E4  300A               	movlw	10
  6242  06E5  00AE               	movwf	MotorPasos@paso
  6243  06E6  3000               	movlw	0
  6244  06E7  00AF               	movwf	MotorPasos@paso+1
  6245  06E8  2F2E               	goto	l4421
  6246  06E9                     l4399:	
  6247  06E9  3001               	movlw	1
  6248  06EA  00AE               	movwf	MotorPasos@paso
  6249  06EB  3000               	movlw	0
  6250  06EC  00AF               	movwf	MotorPasos@paso+1
  6251  06ED  2F2E               	goto	l4421
  6252  06EE                     l4401:	
  6253                           
  6254                           ;Codigo_TT2_01.c: 330:                 if (tipo == 1) paso = 0b1001;
  6255  06EE  0326               	decf	MotorPasos@tipo,w
  6256  06EF  0427               	iorwf	MotorPasos@tipo+1,w
  6257  06F0  1D03               	btfss	3,2
  6258  06F1  2EF3               	goto	u6181
  6259  06F2  2EF4               	goto	u6180
  6260  06F3                     u6181:	
  6261  06F3  2EF9               	goto	l4405
  6262  06F4                     u6180:	
  6263  06F4                     l4403:	
  6264  06F4  3009               	movlw	9
  6265  06F5  00AE               	movwf	MotorPasos@paso
  6266  06F6  3000               	movlw	0
  6267  06F7  00AF               	movwf	MotorPasos@paso+1
  6268  06F8  2F2E               	goto	l4421
  6269  06F9                     l4405:	
  6270  06F9  3002               	movlw	2
  6271  06FA  00AE               	movwf	MotorPasos@paso
  6272  06FB  3000               	movlw	0
  6273  06FC  00AF               	movwf	MotorPasos@paso+1
  6274  06FD  2F2E               	goto	l4421
  6275  06FE                     l4407:	
  6276                           
  6277                           ;Codigo_TT2_01.c: 334:                 if (tipo == 1) paso = 0b0101;
  6278  06FE  0326               	decf	MotorPasos@tipo,w
  6279  06FF  0427               	iorwf	MotorPasos@tipo+1,w
  6280  0700  1D03               	btfss	3,2
  6281  0701  2F03               	goto	u6191
  6282  0702  2F04               	goto	u6190
  6283  0703                     u6191:	
  6284  0703  2F09               	goto	l4411
  6285  0704                     u6190:	
  6286  0704                     l4409:	
  6287  0704  3005               	movlw	5
  6288  0705  00AE               	movwf	MotorPasos@paso
  6289  0706  3000               	movlw	0
  6290  0707  00AF               	movwf	MotorPasos@paso+1
  6291  0708  2F2E               	goto	l4421
  6292  0709                     l4411:	
  6293  0709  3004               	movlw	4
  6294  070A  00AE               	movwf	MotorPasos@paso
  6295  070B  3000               	movlw	0
  6296  070C  00AF               	movwf	MotorPasos@paso+1
  6297  070D  2F2E               	goto	l4421
  6298  070E                     l4413:	
  6299                           
  6300                           ;Codigo_TT2_01.c: 338:                 if (tipo == 1) paso = 0b0110;
  6301  070E  0326               	decf	MotorPasos@tipo,w
  6302  070F  0427               	iorwf	MotorPasos@tipo+1,w
  6303  0710  1D03               	btfss	3,2
  6304  0711  2F13               	goto	u6201
  6305  0712  2F14               	goto	u6200
  6306  0713                     u6201:	
  6307  0713  2F19               	goto	l4417
  6308  0714                     u6200:	
  6309  0714                     l4415:	
  6310  0714  3006               	movlw	6
  6311  0715  00AE               	movwf	MotorPasos@paso
  6312  0716  3000               	movlw	0
  6313  0717  00AF               	movwf	MotorPasos@paso+1
  6314  0718  2F2E               	goto	l4421
  6315  0719                     l4417:	
  6316  0719  3008               	movlw	8
  6317  071A  00AE               	movwf	MotorPasos@paso
  6318  071B  3000               	movlw	0
  6319  071C  00AF               	movwf	MotorPasos@paso+1
  6320  071D  2F2E               	goto	l4421
  6321  071E                     l4419:	
  6322                           
  6323                           ; Switch on 2 bytes has been partitioned into a top level switch of size 1, and 1 sub-sw
      +                          itches
  6324                           ; Switch size 1, requested type "simple"
  6325                           ; Number of cases is 1, Range of values is 0 to 0
  6326                           ; switch strategies available:
  6327                           ; Name         Instructions Cycles
  6328                           ; simple_byte            4     3 (average)
  6329                           ; direct_byte           11     8 (fixed)
  6330                           ; jumptable            260     6 (fixed)
  6331                           ;	Chosen strategy is simple_byte
  6332  071E  0831               	movf	MotorPasos@n+1,w
  6333  071F  3A00               	xorlw	0	; case 0
  6334  0720  1903               	skipnz
  6335  0721  2F23               	goto	l4887
  6336  0722  2F0E               	goto	l4413
  6337  0723                     l4887:	
  6338                           
  6339                           ; Switch size 1, requested type "simple"
  6340                           ; Number of cases is 3, Range of values is 1 to 3
  6341                           ; switch strategies available:
  6342                           ; Name         Instructions Cycles
  6343                           ; simple_byte           10     6 (average)
  6344                           ; direct_byte           20    11 (fixed)
  6345                           ; jumptable            263     9 (fixed)
  6346                           ;	Chosen strategy is simple_byte
  6347  0723  0830               	movf	MotorPasos@n,w
  6348  0724  3A01               	xorlw	1	; case 1
  6349  0725  1903               	skipnz
  6350  0726  2EDE               	goto	l4395
  6351  0727  3A03               	xorlw	3	; case 2
  6352  0728  1903               	skipnz
  6353  0729  2EEE               	goto	l4401
  6354  072A  3A01               	xorlw	1	; case 3
  6355  072B  1903               	skipnz
  6356  072C  2EFE               	goto	l4407
  6357  072D  2F0E               	goto	l4413
  6358  072E                     l4421:	
  6359                           
  6360                           ;Codigo_TT2_01.c: 341:         if(num == 1) {
  6361  072E  0328               	decf	MotorPasos@num,w
  6362  072F  0429               	iorwf	MotorPasos@num+1,w
  6363  0730  1D03               	btfss	3,2
  6364  0731  2F33               	goto	u6211
  6365  0732  2F34               	goto	u6210
  6366  0733                     u6211:	
  6367  0733  2F46               	goto	l4425
  6368  0734                     u6210:	
  6369  0734                     l4423:	
  6370                           
  6371                           ;Codigo_TT2_01.c: 343:             PORTA &= 0x0F;
  6372  0734  300F               	movlw	15
  6373  0735  00F3               	movwf	??_MotorPasos
  6374  0736  0873               	movf	??_MotorPasos,w
  6375  0737  0585               	andwf	5,f	;volatile
  6376                           
  6377                           ;Codigo_TT2_01.c: 344:             PORTA |= (paso << 4);
  6378  0738  082E               	movf	MotorPasos@paso,w	;volatile
  6379  0739  00F3               	movwf	??_MotorPasos
  6380  073A  3003               	movlw	3
  6381  073B                     u6225:	
  6382  073B  1003               	clrc
  6383  073C  0DF3               	rlf	??_MotorPasos,f
  6384  073D  3EFF               	addlw	-1
  6385  073E  1D03               	skipz
  6386  073F  2F3B               	goto	u6225
  6387  0740  1003               	clrc
  6388  0741  0D73               	rlf	??_MotorPasos,w
  6389  0742  00F4               	movwf	??_MotorPasos+1
  6390  0743  0874               	movf	??_MotorPasos+1,w
  6391  0744  0485               	iorwf	5,f	;volatile
  6392                           
  6393                           ;Codigo_TT2_01.c: 345:         }
  6394  0745  2F67               	goto	l269
  6395  0746                     l4425:	
  6396  0746  3002               	movlw	2
  6397  0747  0628               	xorwf	MotorPasos@num,w
  6398  0748  0429               	iorwf	MotorPasos@num+1,w
  6399  0749  1D03               	btfss	3,2
  6400  074A  2F4C               	goto	u6231
  6401  074B  2F4D               	goto	u6230
  6402  074C                     u6231:	
  6403  074C  2F56               	goto	l4429
  6404  074D                     u6230:	
  6405  074D                     l4427:	
  6406                           
  6407                           ;Codigo_TT2_01.c: 348:             PORTB &= 0xF0;
  6408  074D  30F0               	movlw	240
  6409  074E  00F3               	movwf	??_MotorPasos
  6410  074F  0873               	movf	??_MotorPasos,w
  6411  0750  0586               	andwf	6,f	;volatile
  6412                           
  6413                           ;Codigo_TT2_01.c: 349:             PORTB |= paso;
  6414  0751  082E               	movf	MotorPasos@paso,w	;volatile
  6415  0752  00F3               	movwf	??_MotorPasos
  6416  0753  0873               	movf	??_MotorPasos,w
  6417  0754  0486               	iorwf	6,f	;volatile
  6418                           
  6419                           ;Codigo_TT2_01.c: 350:         }
  6420  0755  2F67               	goto	l269
  6421  0756                     l4429:	
  6422                           
  6423                           ;Codigo_TT2_01.c: 353:             PORTC &= 0x0F;
  6424  0756  300F               	movlw	15
  6425  0757  00F3               	movwf	??_MotorPasos
  6426  0758  0873               	movf	??_MotorPasos,w
  6427  0759  0587               	andwf	7,f	;volatile
  6428                           
  6429                           ;Codigo_TT2_01.c: 354:             PORTC |= (paso << 4);
  6430  075A  082E               	movf	MotorPasos@paso,w	;volatile
  6431  075B  00F3               	movwf	??_MotorPasos
  6432  075C  3003               	movlw	3
  6433  075D                     u6245:	
  6434  075D  1003               	clrc
  6435  075E  0DF3               	rlf	??_MotorPasos,f
  6436  075F  3EFF               	addlw	-1
  6437  0760  1D03               	skipz
  6438  0761  2F5D               	goto	u6245
  6439  0762  1003               	clrc
  6440  0763  0D73               	rlf	??_MotorPasos,w
  6441  0764  00F4               	movwf	??_MotorPasos+1
  6442  0765  0874               	movf	??_MotorPasos+1,w
  6443  0766  0487               	iorwf	7,f	;volatile
  6444  0767                     l269:	
  6445                           
  6446                           ;Codigo_TT2_01.c: 357:         if(retardo == 1) {
  6447  0767  032A               	decf	MotorPasos@retardo,w
  6448  0768  042B               	iorwf	MotorPasos@retardo+1,w
  6449  0769  1D03               	btfss	3,2
  6450  076A  2F6C               	goto	u6251
  6451  076B  2F6D               	goto	u6250
  6452  076C                     u6251:	
  6453  076C  2F77               	goto	l4433
  6454  076D                     u6250:	
  6455  076D                     l4431:	
  6456                           
  6457                           ;Codigo_TT2_01.c: 358:             _delay((unsigned long)((20)*(8000000/4000.0)));
  6458  076D  3034               	movlw	52
  6459  076E  00F4               	movwf	??_MotorPasos+1
  6460  076F  30F1               	movlw	241
  6461  0770  00F3               	movwf	??_MotorPasos
  6462  0771                     u6977:	
  6463  0771  0BF3               	decfsz	??_MotorPasos,f
  6464  0772  2F71               	goto	u6977
  6465  0773  0BF4               	decfsz	??_MotorPasos+1,f
  6466  0774  2F71               	goto	u6977
  6467  0775  2F76               	nop2
  6468                           
  6469                           ;Codigo_TT2_01.c: 359:         }
  6470  0776  2F8F               	goto	l273
  6471  0777                     l4433:	
  6472  0777  3002               	movlw	2
  6473  0778  062A               	xorwf	MotorPasos@retardo,w
  6474  0779  042B               	iorwf	MotorPasos@retardo+1,w
  6475  077A  1D03               	btfss	3,2
  6476  077B  2F7D               	goto	u6261
  6477  077C  2F7E               	goto	u6260
  6478  077D                     u6261:	
  6479  077D  2F87               	goto	l4437
  6480  077E                     u6260:	
  6481  077E                     l4435:	
  6482                           
  6483                           ;Codigo_TT2_01.c: 361:             _delay((unsigned long)((75)*(8000000/4000.0)));
  6484  077E  30C3               	movlw	195
  6485  077F  00F4               	movwf	??_MotorPasos+1
  6486  0780  30CD               	movlw	205
  6487  0781  00F3               	movwf	??_MotorPasos
  6488  0782                     u6987:	
  6489  0782  0BF3               	decfsz	??_MotorPasos,f
  6490  0783  2F82               	goto	u6987
  6491  0784  0BF4               	decfsz	??_MotorPasos+1,f
  6492  0785  2F82               	goto	u6987
  6493                           
  6494                           ;Codigo_TT2_01.c: 362:         }
  6495  0786  2F8F               	goto	l273
  6496  0787                     l4437:	
  6497                           
  6498                           ;Codigo_TT2_01.c: 364:             _delay((unsigned long)((45)*(8000000/4000.0)));
  6499  0787  3075               	movlw	117
  6500  0788  00F4               	movwf	??_MotorPasos+1
  6501  0789  30E1               	movlw	225
  6502  078A  00F3               	movwf	??_MotorPasos
  6503  078B                     u6997:	
  6504  078B  0BF3               	decfsz	??_MotorPasos,f
  6505  078C  2F8B               	goto	u6997
  6506  078D  0BF4               	decfsz	??_MotorPasos+1,f
  6507  078E  2F8B               	goto	u6997
  6508  078F                     l273:	
  6509                           
  6510                           ;Codigo_TT2_01.c: 366:     }
  6511  078F  3001               	movlw	1
  6512  0790  1283               	bcf	3,5	;RP0=0, select bank0
  6513  0791  1303               	bcf	3,6	;RP1=0, select bank0
  6514  0792  07AC               	addwf	MotorPasos@i,f
  6515  0793  1803               	skipnc
  6516  0794  0AAD               	incf	MotorPasos@i+1,f
  6517  0795  3000               	movlw	0
  6518  0796  07AD               	addwf	MotorPasos@i+1,f
  6519  0797                     l246:	
  6520  0797  082D               	movf	MotorPasos@i+1,w
  6521  0798  3A80               	xorlw	128
  6522  0799  00F3               	movwf	??_MotorPasos
  6523  079A  0823               	movf	MotorPasos@pasos+1,w
  6524  079B  3A80               	xorlw	128
  6525  079C  0273               	subwf	??_MotorPasos,w
  6526  079D  1D03               	skipz
  6527  079E  2FA1               	goto	u6275
  6528  079F  0822               	movf	MotorPasos@pasos,w
  6529  07A0  022C               	subwf	MotorPasos@i,w
  6530  07A1                     u6275:	
  6531  07A1  1C03               	skipc
  6532  07A2  2FA4               	goto	u6271
  6533  07A3  2FA5               	goto	u6270
  6534  07A4                     u6271:	
  6535  07A4  2E9C               	goto	l4381
  6536  07A5                     u6270:	
  6537  07A5                     l4439:	
  6538                           
  6539                           ;Codigo_TT2_01.c: 367:     return n;
  6540  07A5  1283               	bcf	3,5	;RP0=0, select bank0
  6541  07A6  1303               	bcf	3,6	;RP1=0, select bank0
  6542  07A7  0831               	movf	MotorPasos@n+1,w
  6543  07A8  00A1               	movwf	?_MotorPasos+1
  6544  07A9  0830               	movf	MotorPasos@n,w
  6545  07AA  00A0               	movwf	?_MotorPasos
  6546  07AB                     l277:	
  6547  07AB  0008               	return
  6548  07AC                     __end_of_MotorPasos:	
  6549                           
  6550                           	psect	text11
  6551  152F                     __ptext11:	
  6552 ;; *************** function _Menu1 *****************
  6553 ;; Defined at:
  6554 ;;		line 494 in file "Codigo_TT2_01.c"
  6555 ;; Parameters:    Size  Location     Type
  6556 ;;		None
  6557 ;; Auto vars:     Size  Location     Type
  6558 ;;		None
  6559 ;; Return value:  Size  Location     Type
  6560 ;;                  1    wreg      void 
  6561 ;; Registers used:
  6562 ;;		wreg, fsr0l, fsr0h, status,2, status,0, btemp+1, pclath, cstack
  6563 ;; Tracked objects:
  6564 ;;		On entry : 0/0
  6565 ;;		On exit  : 0/0
  6566 ;;		Unchanged: 0/0
  6567 ;; Data sizes:     COMMON   BANK0   BANK1   BANK3   BANK2
  6568 ;;      Params:         0       0       0       0       0
  6569 ;;      Locals:         0       0       0       0       0
  6570 ;;      Temps:          0       3       0       0       0
  6571 ;;      Totals:         0       3       0       0       0
  6572 ;;Total ram usage:        3 bytes
  6573 ;; Hardware stack levels used:    1
  6574 ;; Hardware stack levels required when called:    5
  6575 ;; This function calls:
  6576 ;;		_Lcd_Clear
  6577 ;;		_Lcd_Set_Cursor
  6578 ;;		_Lcd_Write_String
  6579 ;;		_MostrarCreditos
  6580 ;; This function is called by:
  6581 ;;		_main
  6582 ;; This function uses a non-reentrant model
  6583 ;;
  6584                           
  6585                           
  6586                           ;psect for function _Menu1
  6587  152F                     _Menu1:	
  6588  152F                     l4341:	
  6589                           ;incstack = 0
  6590                           ; Regs used in _Menu1: [wreg-fsr0h+status,2+status,0+btemp+1+pclath+cstack]
  6591                           
  6592                           
  6593                           ;Codigo_TT2_01.c: 495:     while(auxiliar == 0) {
  6594  152F  2DC7               	goto	l4369
  6595  1530                     l4343:	
  6596                           
  6597                           ;Codigo_TT2_01.c: 496:             if(auxiliar == 0){
  6598  1530  0866               	movf	_auxiliar,w
  6599  1531  0467               	iorwf	_auxiliar+1,w
  6600  1532  1D03               	btfss	3,2
  6601  1533  2D35               	goto	u6111
  6602  1534  2D36               	goto	u6110
  6603  1535                     u6111:	
  6604  1535  2DA2               	goto	l4363
  6605  1536                     u6110:	
  6606  1536                     l4345:	
  6607                           
  6608                           ;Codigo_TT2_01.c: 497:                 Lcd_Clear();
  6609  1536  160A  118A  20A8  160A  118A  	fcall	_Lcd_Clear
  6610                           
  6611                           ;Codigo_TT2_01.c: 498:                 Lcd_Set_Cursor(1,3);
  6612  153B  3003               	movlw	3
  6613  153C  1283               	bcf	3,5	;RP0=0, select bank0
  6614  153D  1303               	bcf	3,6	;RP1=0, select bank0
  6615  153E  00CD               	movwf	??_Menu1
  6616  153F  084D               	movf	??_Menu1,w
  6617  1540  00F7               	movwf	Lcd_Set_Cursor@b
  6618  1541  3001               	movlw	1
  6619  1542  160A  118A  20B5  160A  118A  	fcall	_Lcd_Set_Cursor
  6620  1547                     l4347:	
  6621                           
  6622                           ;Codigo_TT2_01.c: 499:                 Lcd_Write_String("Bienvenido");
  6623  1547  3063               	movlw	(low ((STR_11-__stringbase)| (0+32768)))& (0+255)
  6624  1548  1283               	bcf	3,5	;RP0=0, select bank0
  6625  1549  1303               	bcf	3,6	;RP1=0, select bank0
  6626  154A  00A0               	movwf	Lcd_Write_String@a
  6627  154B  3080               	movlw	128
  6628  154C  00A1               	movwf	Lcd_Write_String@a+1
  6629  154D  160A  158A  2774  160A  118A  	fcall	_Lcd_Write_String
  6630  1552                     l4349:	
  6631                           
  6632                           ;Codigo_TT2_01.c: 500:                 _delay((unsigned long)((1000)*(8000000/4000.0)));
  6633  1552  300B               	movlw	11
  6634  1553  1283               	bcf	3,5	;RP0=0, select bank0
  6635  1554  1303               	bcf	3,6	;RP1=0, select bank0
  6636  1555  00CF               	movwf	??_Menu1+2
  6637  1556  3026               	movlw	38
  6638  1557  00CE               	movwf	??_Menu1+1
  6639  1558  305D               	movlw	93
  6640  1559  00CD               	movwf	??_Menu1
  6641  155A                     u7007:	
  6642  155A  0BCD               	decfsz	??_Menu1,f
  6643  155B  2D5A               	goto	u7007
  6644  155C  0BCE               	decfsz	??_Menu1+1,f
  6645  155D  2D5A               	goto	u7007
  6646  155E  0BCF               	decfsz	??_Menu1+2,f
  6647  155F  2D5A               	goto	u7007
  6648  1560                     l4351:	
  6649                           
  6650                           ;Codigo_TT2_01.c: 501:                 Lcd_Clear();
  6651  1560  160A  118A  20A8  160A  118A  	fcall	_Lcd_Clear
  6652  1565                     l4353:	
  6653                           
  6654                           ;Codigo_TT2_01.c: 502:                 Lcd_Set_Cursor(1,3);
  6655  1565  3003               	movlw	3
  6656  1566  1283               	bcf	3,5	;RP0=0, select bank0
  6657  1567  1303               	bcf	3,6	;RP1=0, select bank0
  6658  1568  00CD               	movwf	??_Menu1
  6659  1569  084D               	movf	??_Menu1,w
  6660  156A  00F7               	movwf	Lcd_Set_Cursor@b
  6661  156B  3001               	movlw	1
  6662  156C  160A  118A  20B5  160A  118A  	fcall	_Lcd_Set_Cursor
  6663  1571                     l4355:	
  6664                           
  6665                           ;Codigo_TT2_01.c: 503:                 Lcd_Write_String("Ingrese Un");
  6666  1571  3058               	movlw	(low ((STR_12-__stringbase)| (0+32768)))& (0+255)
  6667  1572  1283               	bcf	3,5	;RP0=0, select bank0
  6668  1573  1303               	bcf	3,6	;RP1=0, select bank0
  6669  1574  00A0               	movwf	Lcd_Write_String@a
  6670  1575  3080               	movlw	128
  6671  1576  00A1               	movwf	Lcd_Write_String@a+1
  6672  1577  160A  158A  2774  160A  118A  	fcall	_Lcd_Write_String
  6673  157C                     l4357:	
  6674                           
  6675                           ;Codigo_TT2_01.c: 504:                 Lcd_Set_Cursor(2,5);
  6676  157C  3005               	movlw	5
  6677  157D  1283               	bcf	3,5	;RP0=0, select bank0
  6678  157E  1303               	bcf	3,6	;RP1=0, select bank0
  6679  157F  00CD               	movwf	??_Menu1
  6680  1580  084D               	movf	??_Menu1,w
  6681  1581  00F7               	movwf	Lcd_Set_Cursor@b
  6682  1582  3002               	movlw	2
  6683  1583  160A  118A  20B5  160A  118A  	fcall	_Lcd_Set_Cursor
  6684  1588                     l4359:	
  6685                           
  6686                           ;Codigo_TT2_01.c: 505:                 Lcd_Write_String("Envase");
  6687  1588  3089               	movlw	(low ((STR_13-__stringbase)| (0+32768)))& (0+255)
  6688  1589  1283               	bcf	3,5	;RP0=0, select bank0
  6689  158A  1303               	bcf	3,6	;RP1=0, select bank0
  6690  158B  00A0               	movwf	Lcd_Write_String@a
  6691  158C  3080               	movlw	128
  6692  158D  00A1               	movwf	Lcd_Write_String@a+1
  6693  158E  160A  158A  2774  160A  118A  	fcall	_Lcd_Write_String
  6694  1593                     l4361:	
  6695                           
  6696                           ;Codigo_TT2_01.c: 506:                 _delay((unsigned long)((1000)*(8000000/4000.0)));
  6697  1593  300B               	movlw	11
  6698  1594  1283               	bcf	3,5	;RP0=0, select bank0
  6699  1595  1303               	bcf	3,6	;RP1=0, select bank0
  6700  1596  00CF               	movwf	??_Menu1+2
  6701  1597  3026               	movlw	38
  6702  1598  00CE               	movwf	??_Menu1+1
  6703  1599  305D               	movlw	93
  6704  159A  00CD               	movwf	??_Menu1
  6705  159B                     u7017:	
  6706  159B  0BCD               	decfsz	??_Menu1,f
  6707  159C  2D9B               	goto	u7017
  6708  159D  0BCE               	decfsz	??_Menu1+1,f
  6709  159E  2D9B               	goto	u7017
  6710  159F  0BCF               	decfsz	??_Menu1+2,f
  6711  15A0  2D9B               	goto	u7017
  6712                           
  6713                           ;Codigo_TT2_01.c: 507:             }
  6714  15A1  2DC7               	goto	l4369
  6715  15A2                     l4363:	
  6716                           
  6717                           ;Codigo_TT2_01.c: 509:                 Lcd_Clear();
  6718  15A2  160A  118A  20A8  160A  118A  	fcall	_Lcd_Clear
  6719                           
  6720                           ;Codigo_TT2_01.c: 510:                 Lcd_Set_Cursor(1,1);
  6721  15A7  01F7               	clrf	Lcd_Set_Cursor@b
  6722  15A8  0AF7               	incf	Lcd_Set_Cursor@b,f
  6723  15A9  3001               	movlw	1
  6724  15AA  160A  118A  20B5  160A  118A  	fcall	_Lcd_Set_Cursor
  6725  15AF                     l4365:	
  6726                           
  6727                           ;Codigo_TT2_01.c: 512:                 MostrarCreditos();
  6728  15AF  160A  118A  26F5  160A  118A  	fcall	_MostrarCreditos
  6729  15B4                     l4367:	
  6730                           
  6731                           ;Codigo_TT2_01.c: 513:                 Lcd_Set_Cursor(2,1);
  6732  15B4  01F7               	clrf	Lcd_Set_Cursor@b
  6733  15B5  0AF7               	incf	Lcd_Set_Cursor@b,f
  6734  15B6  3002               	movlw	2
  6735  15B7  160A  118A  20B5  160A  118A  	fcall	_Lcd_Set_Cursor
  6736                           
  6737                           ;Codigo_TT2_01.c: 514:                 Lcd_Write_String("Elija una opción: ");
  6738  15BC  3001               	movlw	(low ((STR_14-__stringbase)| (0+32768)))& (0+255)
  6739  15BD  1283               	bcf	3,5	;RP0=0, select bank0
  6740  15BE  1303               	bcf	3,6	;RP1=0, select bank0
  6741  15BF  00A0               	movwf	Lcd_Write_String@a
  6742  15C0  3080               	movlw	128
  6743  15C1  00A1               	movwf	Lcd_Write_String@a+1
  6744  15C2  160A  158A  2774  160A  118A  	fcall	_Lcd_Write_String
  6745  15C7                     l4369:	
  6746                           
  6747                           ;Codigo_TT2_01.c: 495:     while(auxiliar == 0) {
  6748  15C7  1283               	bcf	3,5	;RP0=0, select bank0
  6749  15C8  1303               	bcf	3,6	;RP1=0, select bank0
  6750  15C9  0866               	movf	_auxiliar,w
  6751  15CA  0467               	iorwf	_auxiliar+1,w
  6752  15CB  1903               	btfsc	3,2
  6753  15CC  2DCE               	goto	u6121
  6754  15CD  2DCF               	goto	u6120
  6755  15CE                     u6121:	
  6756  15CE  2D30               	goto	l4343
  6757  15CF                     u6120:	
  6758  15CF                     l4371:	
  6759                           
  6760                           ;Codigo_TT2_01.c: 517:     _delay((unsigned long)((25)*(8000000/4000.0)));
  6761  15CF  3041               	movlw	65
  6762  15D0  1283               	bcf	3,5	;RP0=0, select bank0
  6763  15D1  1303               	bcf	3,6	;RP1=0, select bank0
  6764  15D2  00CE               	movwf	??_Menu1+1
  6765  15D3  30ED               	movlw	237
  6766  15D4  00CD               	movwf	??_Menu1
  6767  15D5                     u7027:	
  6768  15D5  0BCD               	decfsz	??_Menu1,f
  6769  15D6  2DD5               	goto	u7027
  6770  15D7  0BCE               	decfsz	??_Menu1+1,f
  6771  15D8  2DD5               	goto	u7027
  6772  15D9  2DDA               	nop2
  6773  15DA                     l342:	
  6774                           ;Codigo_TT2_01.c: 518:     while(PORTAbits.RA1);
  6775                           
  6776  15DA  1283               	bcf	3,5	;RP0=0, select bank0
  6777  15DB  1303               	bcf	3,6	;RP1=0, select bank0
  6778  15DC  1885               	btfsc	5,1	;volatile
  6779  15DD  2DDF               	goto	u6131
  6780  15DE  2DE0               	goto	u6130
  6781  15DF                     u6131:	
  6782  15DF  2DDA               	goto	l342
  6783  15E0                     u6130:	
  6784  15E0                     l4373:	
  6785                           
  6786                           ;Codigo_TT2_01.c: 519:     _delay((unsigned long)((25)*(8000000/4000.0)));
  6787  15E0  3041               	movlw	65
  6788  15E1  1283               	bcf	3,5	;RP0=0, select bank0
  6789  15E2  1303               	bcf	3,6	;RP1=0, select bank0
  6790  15E3  00CE               	movwf	??_Menu1+1
  6791  15E4  30ED               	movlw	237
  6792  15E5  00CD               	movwf	??_Menu1
  6793  15E6                     u7037:	
  6794  15E6  0BCD               	decfsz	??_Menu1,f
  6795  15E7  2DE6               	goto	u7037
  6796  15E8  0BCE               	decfsz	??_Menu1+1,f
  6797  15E9  2DE6               	goto	u7037
  6798  15EA  2DEB               	nop2
  6799  15EB                     l345:	
  6800  15EB  0008               	return
  6801  15EC                     __end_of_Menu1:	
  6802                           
  6803                           	psect	text12
  6804  16F5                     __ptext12:	
  6805 ;; *************** function _MostrarCreditos *****************
  6806 ;; Defined at:
  6807 ;;		line 456 in file "Codigo_TT2_01.c"
  6808 ;; Parameters:    Size  Location     Type
  6809 ;;		None
  6810 ;; Auto vars:     Size  Location     Type
  6811 ;;		None
  6812 ;; Return value:  Size  Location     Type
  6813 ;;                  1    wreg      void 
  6814 ;; Registers used:
  6815 ;;		wreg, fsr0l, fsr0h, status,2, status,0, btemp+1, pclath, cstack
  6816 ;; Tracked objects:
  6817 ;;		On entry : 0/0
  6818 ;;		On exit  : 0/0
  6819 ;;		Unchanged: 0/0
  6820 ;; Data sizes:     COMMON   BANK0   BANK1   BANK3   BANK2
  6821 ;;      Params:         0       0       0       0       0
  6822 ;;      Locals:         0       0       0       0       0
  6823 ;;      Temps:          0       0       0       0       0
  6824 ;;      Totals:         0       0       0       0       0
  6825 ;;Total ram usage:        0 bytes
  6826 ;; Hardware stack levels used:    1
  6827 ;; Hardware stack levels required when called:    4
  6828 ;; This function calls:
  6829 ;;		_Lcd_Write_String
  6830 ;;		___flmul
  6831 ;;		___fltol
  6832 ;;		___wmul
  6833 ;;		_itoa
  6834 ;; This function is called by:
  6835 ;;		_main
  6836 ;;		_Menu1
  6837 ;; This function uses a non-reentrant model
  6838 ;;
  6839                           
  6840                           
  6841                           ;psect for function _MostrarCreditos
  6842  16F5                     _MostrarCreditos:	
  6843  16F5                     l4093:	
  6844                           ;incstack = 0
  6845                           ; Regs used in _MostrarCreditos: [wreg-fsr0h+status,2+status,0+btemp+1+pclath+cstack]
  6846                           
  6847                           
  6848                           ;Codigo_TT2_01.c: 457:     Lcd_Write_String("creditos: ");
  6849  16F5  304D               	movlw	(low ((STR_4-__stringbase)| (0+32768)))& (0+255)
  6850  16F6  1283               	bcf	3,5	;RP0=0, select bank0
  6851  16F7  1303               	bcf	3,6	;RP1=0, select bank0
  6852  16F8  00A0               	movwf	Lcd_Write_String@a
  6853  16F9  3080               	movlw	128
  6854  16FA  00A1               	movwf	Lcd_Write_String@a+1
  6855  16FB  160A  158A  2774  160A  118A  	fcall	_Lcd_Write_String
  6856  1700                     l4095:	
  6857                           
  6858                           ;Codigo_TT2_01.c: 458:     creditos_temp = (int) creditos;
  6859  1700  1683               	bsf	3,5	;RP0=1, select bank1
  6860  1701  1303               	bcf	3,6	;RP1=0, select bank1
  6861  1702  0823               	movf	(_creditos+3)^(0+128),w
  6862  1703  1283               	bcf	3,5	;RP0=0, select bank0
  6863  1704  1303               	bcf	3,6	;RP1=0, select bank0
  6864  1705  00C7               	movwf	___fltol@f1+3
  6865  1706  1683               	bsf	3,5	;RP0=1, select bank1
  6866  1707  1303               	bcf	3,6	;RP1=0, select bank1
  6867  1708  0822               	movf	(_creditos+2)^(0+128),w
  6868  1709  1283               	bcf	3,5	;RP0=0, select bank0
  6869  170A  1303               	bcf	3,6	;RP1=0, select bank0
  6870  170B  00C6               	movwf	___fltol@f1+2
  6871  170C  1683               	bsf	3,5	;RP0=1, select bank1
  6872  170D  1303               	bcf	3,6	;RP1=0, select bank1
  6873  170E  0821               	movf	(_creditos+1)^(0+128),w
  6874  170F  1283               	bcf	3,5	;RP0=0, select bank0
  6875  1710  1303               	bcf	3,6	;RP1=0, select bank0
  6876  1711  00C5               	movwf	___fltol@f1+1
  6877  1712  1683               	bsf	3,5	;RP0=1, select bank1
  6878  1713  1303               	bcf	3,6	;RP1=0, select bank1
  6879  1714  0820               	movf	_creditos^(0+128),w
  6880  1715  1283               	bcf	3,5	;RP0=0, select bank0
  6881  1716  1303               	bcf	3,6	;RP1=0, select bank0
  6882  1717  00C4               	movwf	___fltol@f1
  6883  1718  160A  118A  223D  160A  118A  	fcall	___fltol
  6884  171D  1283               	bcf	3,5	;RP0=0, select bank0
  6885  171E  1303               	bcf	3,6	;RP1=0, select bank0
  6886  171F  0845               	movf	?___fltol+1,w
  6887  1720  00EB               	movwf	_creditos_temp+1
  6888  1721  0844               	movf	?___fltol,w
  6889  1722  00EA               	movwf	_creditos_temp
  6890  1723                     l4097:	
  6891                           
  6892                           ;Codigo_TT2_01.c: 459:     itoa(dato_c, creditos_temp, 10);
  6893  1723  086B               	movf	_creditos_temp+1,w
  6894  1724  00AD               	movwf	itoa@val+1
  6895  1725  086A               	movf	_creditos_temp,w
  6896  1726  00AC               	movwf	itoa@val
  6897  1727  300A               	movlw	10
  6898  1728  00AE               	movwf	itoa@base
  6899  1729  3000               	movlw	0
  6900  172A  00AF               	movwf	itoa@base+1
  6901  172B  30AC               	movlw	(low (_dato_c| 0))& (0+255)
  6902  172C  160A  158A  26B2  160A  118A  	fcall	_itoa
  6903  1731                     l4099:	
  6904                           
  6905                           ;Codigo_TT2_01.c: 460:     Lcd_Write_String(dato_c);
  6906  1731  30AC               	movlw	(low (_dato_c| 0))& (0+255)
  6907  1732  1283               	bcf	3,5	;RP0=0, select bank0
  6908  1733  1303               	bcf	3,6	;RP1=0, select bank0
  6909  1734  00A0               	movwf	Lcd_Write_String@a
  6910  1735  3000               	movlw	0
  6911  1736  00A1               	movwf	Lcd_Write_String@a+1
  6912  1737  160A  158A  2774  160A  118A  	fcall	_Lcd_Write_String
  6913  173C                     l4101:	
  6914                           
  6915                           ;Codigo_TT2_01.c: 461:     creditos_temp = creditos * 100;
  6916  173C  1683               	bsf	3,5	;RP0=1, select bank1
  6917  173D  1303               	bcf	3,6	;RP1=0, select bank1
  6918  173E  0823               	movf	(_creditos+3)^(0+128),w
  6919  173F  1283               	bcf	3,5	;RP0=0, select bank0
  6920  1740  1303               	bcf	3,6	;RP1=0, select bank0
  6921  1741  00AC               	movwf	___flmul@a+3
  6922  1742  1683               	bsf	3,5	;RP0=1, select bank1
  6923  1743  1303               	bcf	3,6	;RP1=0, select bank1
  6924  1744  0822               	movf	(_creditos+2)^(0+128),w
  6925  1745  1283               	bcf	3,5	;RP0=0, select bank0
  6926  1746  1303               	bcf	3,6	;RP1=0, select bank0
  6927  1747  00AB               	movwf	___flmul@a+2
  6928  1748  1683               	bsf	3,5	;RP0=1, select bank1
  6929  1749  1303               	bcf	3,6	;RP1=0, select bank1
  6930  174A  0821               	movf	(_creditos+1)^(0+128),w
  6931  174B  1283               	bcf	3,5	;RP0=0, select bank0
  6932  174C  1303               	bcf	3,6	;RP1=0, select bank0
  6933  174D  00AA               	movwf	___flmul@a+1
  6934  174E  1683               	bsf	3,5	;RP0=1, select bank1
  6935  174F  1303               	bcf	3,6	;RP1=0, select bank1
  6936  1750  0820               	movf	_creditos^(0+128),w
  6937  1751  1283               	bcf	3,5	;RP0=0, select bank0
  6938  1752  1303               	bcf	3,6	;RP1=0, select bank0
  6939  1753  00A9               	movwf	___flmul@a
  6940  1754  3042               	movlw	66
  6941  1755  00A8               	movwf	___flmul@b+3
  6942  1756  30C8               	movlw	200
  6943  1757  00A7               	movwf	___flmul@b+2
  6944  1758  3000               	movlw	0
  6945  1759  00A6               	movwf	___flmul@b+1
  6946  175A  3000               	movlw	0
  6947  175B  00A5               	movwf	___flmul@b
  6948  175C  120A  158A  249F  160A  118A  	fcall	___flmul
  6949  1761  1283               	bcf	3,5	;RP0=0, select bank0
  6950  1762  1303               	bcf	3,6	;RP1=0, select bank0
  6951  1763  0828               	movf	?___flmul+3,w
  6952  1764  00C7               	movwf	___fltol@f1+3
  6953  1765  0827               	movf	?___flmul+2,w
  6954  1766  00C6               	movwf	___fltol@f1+2
  6955  1767  0826               	movf	?___flmul+1,w
  6956  1768  00C5               	movwf	___fltol@f1+1
  6957  1769  0825               	movf	?___flmul,w
  6958  176A  00C4               	movwf	___fltol@f1
  6959  176B  160A  118A  223D  160A  118A  	fcall	___fltol
  6960  1770  1283               	bcf	3,5	;RP0=0, select bank0
  6961  1771  1303               	bcf	3,6	;RP1=0, select bank0
  6962  1772  0845               	movf	?___fltol+1,w
  6963  1773  00EB               	movwf	_creditos_temp+1
  6964  1774  0844               	movf	?___fltol,w
  6965  1775  00EA               	movwf	_creditos_temp
  6966  1776                     l4103:	
  6967                           
  6968                           ;Codigo_TT2_01.c: 463:     if(creditos_temp >= 100) {
  6969  1776  086B               	movf	_creditos_temp+1,w
  6970  1777  3A80               	xorlw	128
  6971  1778  00FF               	movwf	btemp+1
  6972  1779  3080               	movlw	128
  6973  177A  027F               	subwf	btemp+1,w
  6974  177B  1D03               	skipz
  6975  177C  2F7F               	goto	u5615
  6976  177D  3064               	movlw	100
  6977  177E  026A               	subwf	_creditos_temp,w
  6978  177F                     u5615:	
  6979  177F  1C03               	skipc
  6980  1780  2F82               	goto	u5611
  6981  1781  2F83               	goto	u5610
  6982  1782                     u5611:	
  6983  1782  2FBF               	goto	l4109
  6984  1783                     u5610:	
  6985  1783                     l4105:	
  6986                           
  6987                           ;Codigo_TT2_01.c: 464:         creditos_temp2 = (int) creditos;
  6988  1783  1683               	bsf	3,5	;RP0=1, select bank1
  6989  1784  1303               	bcf	3,6	;RP1=0, select bank1
  6990  1785  0823               	movf	(_creditos+3)^(0+128),w
  6991  1786  1283               	bcf	3,5	;RP0=0, select bank0
  6992  1787  1303               	bcf	3,6	;RP1=0, select bank0
  6993  1788  00C7               	movwf	___fltol@f1+3
  6994  1789  1683               	bsf	3,5	;RP0=1, select bank1
  6995  178A  1303               	bcf	3,6	;RP1=0, select bank1
  6996  178B  0822               	movf	(_creditos+2)^(0+128),w
  6997  178C  1283               	bcf	3,5	;RP0=0, select bank0
  6998  178D  1303               	bcf	3,6	;RP1=0, select bank0
  6999  178E  00C6               	movwf	___fltol@f1+2
  7000  178F  1683               	bsf	3,5	;RP0=1, select bank1
  7001  1790  1303               	bcf	3,6	;RP1=0, select bank1
  7002  1791  0821               	movf	(_creditos+1)^(0+128),w
  7003  1792  1283               	bcf	3,5	;RP0=0, select bank0
  7004  1793  1303               	bcf	3,6	;RP1=0, select bank0
  7005  1794  00C5               	movwf	___fltol@f1+1
  7006  1795  1683               	bsf	3,5	;RP0=1, select bank1
  7007  1796  1303               	bcf	3,6	;RP1=0, select bank1
  7008  1797  0820               	movf	_creditos^(0+128),w
  7009  1798  1283               	bcf	3,5	;RP0=0, select bank0
  7010  1799  1303               	bcf	3,6	;RP1=0, select bank0
  7011  179A  00C4               	movwf	___fltol@f1
  7012  179B  160A  118A  223D  160A  118A  	fcall	___fltol
  7013  17A0  1283               	bcf	3,5	;RP0=0, select bank0
  7014  17A1  1303               	bcf	3,6	;RP1=0, select bank0
  7015  17A2  0845               	movf	?___fltol+1,w
  7016  17A3  00ED               	movwf	_creditos_temp2+1
  7017  17A4  0844               	movf	?___fltol,w
  7018  17A5  00EC               	movwf	_creditos_temp2
  7019                           
  7020                           ;Codigo_TT2_01.c: 465:         creditos_temp2 *= 100;
  7021  17A6  3064               	movlw	100
  7022  17A7  00F3               	movwf	___wmul@multiplier
  7023  17A8  3000               	movlw	0
  7024  17A9  00F4               	movwf	___wmul@multiplier+1
  7025  17AA  086D               	movf	_creditos_temp2+1,w
  7026  17AB  00F6               	movwf	___wmul@multiplicand+1
  7027  17AC  086C               	movf	_creditos_temp2,w
  7028  17AD  00F5               	movwf	___wmul@multiplicand
  7029  17AE  160A  158A  268D  160A  118A  	fcall	___wmul
  7030  17B3  0874               	movf	?___wmul+1,w
  7031  17B4  1283               	bcf	3,5	;RP0=0, select bank0
  7032  17B5  1303               	bcf	3,6	;RP1=0, select bank0
  7033  17B6  00ED               	movwf	_creditos_temp2+1
  7034  17B7  0873               	movf	?___wmul,w
  7035  17B8  00EC               	movwf	_creditos_temp2
  7036  17B9                     l4107:	
  7037                           
  7038                           ;Codigo_TT2_01.c: 466:         creditos_temp -= creditos_temp2;
  7039  17B9  086C               	movf	_creditos_temp2,w
  7040  17BA  02EA               	subwf	_creditos_temp,f
  7041  17BB  086D               	movf	_creditos_temp2+1,w
  7042  17BC  1C03               	skipc
  7043  17BD  03EB               	decf	_creditos_temp+1,f
  7044  17BE  02EB               	subwf	_creditos_temp+1,f
  7045  17BF                     l4109:	
  7046                           
  7047                           ;Codigo_TT2_01.c: 468:     Lcd_Write_String(".");
  7048  17BF  3076               	movlw	(low (((STR_2+8)-__stringbase)| (0+32768)))& (0+255)
  7049  17C0  1283               	bcf	3,5	;RP0=0, select bank0
  7050  17C1  1303               	bcf	3,6	;RP1=0, select bank0
  7051  17C2  00A0               	movwf	Lcd_Write_String@a
  7052  17C3  3080               	movlw	128
  7053  17C4  00A1               	movwf	Lcd_Write_String@a+1
  7054  17C5  160A  158A  2774  160A  118A  	fcall	_Lcd_Write_String
  7055  17CA                     l4111:	
  7056                           
  7057                           ;Codigo_TT2_01.c: 469:     if(creditos_temp < 10) Lcd_Write_String("0");
  7058  17CA  1283               	bcf	3,5	;RP0=0, select bank0
  7059  17CB  1303               	bcf	3,6	;RP1=0, select bank0
  7060  17CC  086B               	movf	_creditos_temp+1,w
  7061  17CD  3A80               	xorlw	128
  7062  17CE  00FF               	movwf	btemp+1
  7063  17CF  3080               	movlw	128
  7064  17D0  027F               	subwf	btemp+1,w
  7065  17D1  1D03               	skipz
  7066  17D2  2FD5               	goto	u5625
  7067  17D3  300A               	movlw	10
  7068  17D4  026A               	subwf	_creditos_temp,w
  7069  17D5                     u5625:	
  7070  17D5  1803               	skipnc
  7071  17D6  2FD8               	goto	u5621
  7072  17D7  2FD9               	goto	u5620
  7073  17D8                     u5621:	
  7074  17D8  2FE4               	goto	l4115
  7075  17D9                     u5620:	
  7076  17D9                     l4113:	
  7077  17D9  3090               	movlw	(low ((STR_6-__stringbase)| (0+32768)))& (0+255)
  7078  17DA  1283               	bcf	3,5	;RP0=0, select bank0
  7079  17DB  1303               	bcf	3,6	;RP1=0, select bank0
  7080  17DC  00A0               	movwf	Lcd_Write_String@a
  7081  17DD  3080               	movlw	128
  7082  17DE  00A1               	movwf	Lcd_Write_String@a+1
  7083  17DF  160A  158A  2774  160A  118A  	fcall	_Lcd_Write_String
  7084  17E4                     l4115:	
  7085                           
  7086                           ;Codigo_TT2_01.c: 470:     itoa(dato_c, creditos_temp, 10);
  7087  17E4  1283               	bcf	3,5	;RP0=0, select bank0
  7088  17E5  1303               	bcf	3,6	;RP1=0, select bank0
  7089  17E6  086B               	movf	_creditos_temp+1,w
  7090  17E7  00AD               	movwf	itoa@val+1
  7091  17E8  086A               	movf	_creditos_temp,w
  7092  17E9  00AC               	movwf	itoa@val
  7093  17EA  300A               	movlw	10
  7094  17EB  00AE               	movwf	itoa@base
  7095  17EC  3000               	movlw	0
  7096  17ED  00AF               	movwf	itoa@base+1
  7097  17EE  30AC               	movlw	(low (_dato_c| 0))& (0+255)
  7098  17EF  160A  158A  26B2  160A  118A  	fcall	_itoa
  7099  17F4                     l4117:	
  7100                           
  7101                           ;Codigo_TT2_01.c: 472:     Lcd_Write_String(dato_c);
  7102  17F4  30AC               	movlw	(low (_dato_c| 0))& (0+255)
  7103  17F5  1283               	bcf	3,5	;RP0=0, select bank0
  7104  17F6  1303               	bcf	3,6	;RP1=0, select bank0
  7105  17F7  00A0               	movwf	Lcd_Write_String@a
  7106  17F8  3000               	movlw	0
  7107  17F9  00A1               	movwf	Lcd_Write_String@a+1
  7108  17FA  160A  158A  2774  160A  118A  	fcall	_Lcd_Write_String
  7109  17FF                     l331:	
  7110  17FF  0008               	return
  7111  1800                     __end_of_MostrarCreditos:	
  7112                           
  7113                           	psect	text13
  7114  1EB2                     __ptext13:	
  7115 ;; *************** function _itoa *****************
  7116 ;; Defined at:
  7117 ;;		line 4 in file "C:\Program Files (x86)\Microchip\xc8\v2.10\pic\sources\c90\common\itoa.c"
  7118 ;; Parameters:    Size  Location     Type
  7119 ;;  buf             1    wreg     PTR unsigned char 
  7120 ;;		 -> dato_c(20), 
  7121 ;;  val             2   12[BANK0 ] int 
  7122 ;;  base            2   14[BANK0 ] int 
  7123 ;; Auto vars:     Size  Location     Type
  7124 ;;  buf             1   18[BANK0 ] PTR unsigned char 
  7125 ;;		 -> dato_c(20), 
  7126 ;;  cp              1    0        PTR unsigned char 
  7127 ;;		 -> dato_c(20), 
  7128 ;; Return value:  Size  Location     Type
  7129 ;;                  1    wreg      PTR unsigned char 
  7130 ;; Registers used:
  7131 ;;		wreg, fsr0l, fsr0h, status,2, status,0, pclath, cstack
  7132 ;; Tracked objects:
  7133 ;;		On entry : 0/0
  7134 ;;		On exit  : 0/0
  7135 ;;		Unchanged: 0/0
  7136 ;; Data sizes:     COMMON   BANK0   BANK1   BANK3   BANK2
  7137 ;;      Params:         0       4       0       0       0
  7138 ;;      Locals:         0       2       0       0       0
  7139 ;;      Temps:          0       1       0       0       0
  7140 ;;      Totals:         0       7       0       0       0
  7141 ;;Total ram usage:        7 bytes
  7142 ;; Hardware stack levels used:    1
  7143 ;; Hardware stack levels required when called:    3
  7144 ;; This function calls:
  7145 ;;		_utoa
  7146 ;; This function is called by:
  7147 ;;		_MostrarCreditos
  7148 ;; This function uses a non-reentrant model
  7149 ;;
  7150                           
  7151                           
  7152                           ;psect for function _itoa
  7153  1EB2                     _itoa:	
  7154                           
  7155                           ;incstack = 0
  7156                           ; Regs used in _itoa: [wreg-fsr0h+status,2+status,0+pclath+cstack]
  7157                           ;itoa@buf stored from wreg
  7158  1EB2  1283               	bcf	3,5	;RP0=0, select bank0
  7159  1EB3  1303               	bcf	3,6	;RP1=0, select bank0
  7160  1EB4  00B2               	movwf	itoa@buf
  7161  1EB5                     l3979:	
  7162  1EB5                     l3981:	
  7163  1EB5  1FAD               	btfss	itoa@val+1,7
  7164  1EB6  2EB8               	goto	u5321
  7165  1EB7  2EB9               	goto	u5320
  7166  1EB8                     u5321:	
  7167  1EB8  2EC9               	goto	l3989
  7168  1EB9                     u5320:	
  7169  1EB9                     l3983:	
  7170  1EB9  302D               	movlw	45
  7171  1EBA  00B0               	movwf	??_itoa
  7172  1EBB  0832               	movf	itoa@buf,w
  7173  1EBC  0084               	movwf	4
  7174  1EBD  0830               	movf	??_itoa,w
  7175  1EBE  1383               	bcf	3,7	;select IRP bank0
  7176  1EBF  0080               	movwf	0
  7177  1EC0                     l3985:	
  7178  1EC0  3001               	movlw	1
  7179  1EC1  00B0               	movwf	??_itoa
  7180  1EC2  0830               	movf	??_itoa,w
  7181  1EC3  07B2               	addwf	itoa@buf,f
  7182  1EC4                     l3987:	
  7183  1EC4  09AC               	comf	itoa@val,f
  7184  1EC5  09AD               	comf	itoa@val+1,f
  7185  1EC6  0AAC               	incf	itoa@val,f
  7186  1EC7  1903               	skipnz
  7187  1EC8  0AAD               	incf	itoa@val+1,f
  7188  1EC9                     l3989:	
  7189  1EC9  082D               	movf	itoa@val+1,w
  7190  1ECA  00A4               	movwf	utoa@val+1
  7191  1ECB  082C               	movf	itoa@val,w
  7192  1ECC  00A3               	movwf	utoa@val
  7193  1ECD  082F               	movf	itoa@base+1,w
  7194  1ECE  00A6               	movwf	utoa@base+1
  7195  1ECF  082E               	movf	itoa@base,w
  7196  1ED0  00A5               	movwf	utoa@base
  7197  1ED1  0832               	movf	itoa@buf,w
  7198  1ED2  160A  118A  21CB  160A  158A  	fcall	_utoa
  7199  1ED7                     l879:	
  7200  1ED7  0008               	return
  7201  1ED8                     __end_of_itoa:	
  7202                           
  7203                           	psect	text14
  7204  11CB                     __ptext14:	
  7205 ;; *************** function _utoa *****************
  7206 ;; Defined at:
  7207 ;;		line 17 in file "C:\Program Files (x86)\Microchip\xc8\v2.10\pic\sources\c90\common\itoa.c"
  7208 ;; Parameters:    Size  Location     Type
  7209 ;;  buf             1    wreg     PTR unsigned char 
  7210 ;;		 -> dato_c(20), 
  7211 ;;  val             2    3[BANK0 ] unsigned int 
  7212 ;;  base            2    5[BANK0 ] int 
  7213 ;; Auto vars:     Size  Location     Type
  7214 ;;  buf             1   11[BANK0 ] PTR unsigned char 
  7215 ;;		 -> dato_c(20), 
  7216 ;;  v               2    8[BANK0 ] unsigned int 
  7217 ;;  c               1   10[BANK0 ] unsigned char 
  7218 ;; Return value:  Size  Location     Type
  7219 ;;                  1    wreg      PTR unsigned char 
  7220 ;; Registers used:
  7221 ;;		wreg, fsr0l, fsr0h, status,2, status,0, pclath, cstack
  7222 ;; Tracked objects:
  7223 ;;		On entry : 0/0
  7224 ;;		On exit  : 0/0
  7225 ;;		Unchanged: 0/0
  7226 ;; Data sizes:     COMMON   BANK0   BANK1   BANK3   BANK2
  7227 ;;      Params:         0       4       0       0       0
  7228 ;;      Locals:         0       4       0       0       0
  7229 ;;      Temps:          0       1       0       0       0
  7230 ;;      Totals:         0       9       0       0       0
  7231 ;;Total ram usage:        9 bytes
  7232 ;; Hardware stack levels used:    1
  7233 ;; Hardware stack levels required when called:    2
  7234 ;; This function calls:
  7235 ;;		___lwdiv
  7236 ;;		___lwmod
  7237 ;; This function is called by:
  7238 ;;		_itoa
  7239 ;; This function uses a non-reentrant model
  7240 ;;
  7241                           
  7242                           
  7243                           ;psect for function _utoa
  7244  11CB                     _utoa:	
  7245                           
  7246                           ;incstack = 0
  7247                           ; Regs used in _utoa: [wreg-fsr0h+status,2+status,0+pclath+cstack]
  7248                           ;utoa@buf stored from wreg
  7249  11CB  1283               	bcf	3,5	;RP0=0, select bank0
  7250  11CC  1303               	bcf	3,6	;RP1=0, select bank0
  7251  11CD  00AB               	movwf	utoa@buf
  7252  11CE                     l3941:	
  7253  11CE  0824               	movf	utoa@val+1,w
  7254  11CF  00A9               	movwf	utoa@v+1
  7255  11D0  0823               	movf	utoa@val,w
  7256  11D1  00A8               	movwf	utoa@v
  7257  11D2                     l3943:	
  7258  11D2  0826               	movf	utoa@base+1,w
  7259  11D3  00F4               	movwf	___lwdiv@divisor+1
  7260  11D4  0825               	movf	utoa@base,w
  7261  11D5  00F3               	movwf	___lwdiv@divisor
  7262  11D6  0829               	movf	utoa@v+1,w
  7263  11D7  00F6               	movwf	___lwdiv@dividend+1
  7264  11D8  0828               	movf	utoa@v,w
  7265  11D9  00F5               	movwf	___lwdiv@dividend
  7266  11DA  160A  158A  27BA  160A  118A  	fcall	___lwdiv
  7267  11DF  0874               	movf	?___lwdiv+1,w
  7268  11E0  1283               	bcf	3,5	;RP0=0, select bank0
  7269  11E1  1303               	bcf	3,6	;RP1=0, select bank0
  7270  11E2  00A9               	movwf	utoa@v+1
  7271  11E3  0873               	movf	?___lwdiv,w
  7272  11E4  00A8               	movwf	utoa@v
  7273  11E5                     l3945:	
  7274  11E5  3001               	movlw	1
  7275  11E6  00A7               	movwf	??_utoa
  7276  11E7  0827               	movf	??_utoa,w
  7277  11E8  07AB               	addwf	utoa@buf,f
  7278  11E9                     l3947:	
  7279  11E9  0828               	movf	utoa@v,w
  7280  11EA  0429               	iorwf	utoa@v+1,w
  7281  11EB  1D03               	btfss	3,2
  7282  11EC  29EE               	goto	u5261
  7283  11ED  29EF               	goto	u5260
  7284  11EE                     u5261:	
  7285  11EE  29D2               	goto	l3943
  7286  11EF                     u5260:	
  7287  11EF                     l3949:	
  7288  11EF  082B               	movf	utoa@buf,w
  7289  11F0  0084               	movwf	4
  7290  11F1  1383               	bcf	3,7	;select IRP bank0
  7291  11F2  0180               	clrf	0
  7292  11F3                     l3951:	
  7293  11F3  3001               	movlw	1
  7294  11F4  02AB               	subwf	utoa@buf,f
  7295  11F5                     l3953:	
  7296  11F5  0826               	movf	utoa@base+1,w
  7297  11F6  00F4               	movwf	___lwmod@divisor+1
  7298  11F7  0825               	movf	utoa@base,w
  7299  11F8  00F3               	movwf	___lwmod@divisor
  7300  11F9  0824               	movf	utoa@val+1,w
  7301  11FA  00F6               	movwf	___lwmod@dividend+1
  7302  11FB  0823               	movf	utoa@val,w
  7303  11FC  00F5               	movwf	___lwmod@dividend
  7304  11FD  160A  158A  273A  160A  118A  	fcall	___lwmod
  7305  1202  0873               	movf	?___lwmod,w
  7306  1203  1283               	bcf	3,5	;RP0=0, select bank0
  7307  1204  1303               	bcf	3,6	;RP1=0, select bank0
  7308  1205  00A7               	movwf	??_utoa
  7309  1206  0827               	movf	??_utoa,w
  7310  1207  00AA               	movwf	utoa@c
  7311  1208                     l3955:	
  7312  1208  0826               	movf	utoa@base+1,w
  7313  1209  00F4               	movwf	___lwdiv@divisor+1
  7314  120A  0825               	movf	utoa@base,w
  7315  120B  00F3               	movwf	___lwdiv@divisor
  7316  120C  0824               	movf	utoa@val+1,w
  7317  120D  00F6               	movwf	___lwdiv@dividend+1
  7318  120E  0823               	movf	utoa@val,w
  7319  120F  00F5               	movwf	___lwdiv@dividend
  7320  1210  160A  158A  27BA  160A  118A  	fcall	___lwdiv
  7321  1215  0874               	movf	?___lwdiv+1,w
  7322  1216  1283               	bcf	3,5	;RP0=0, select bank0
  7323  1217  1303               	bcf	3,6	;RP1=0, select bank0
  7324  1218  00A4               	movwf	utoa@val+1
  7325  1219  0873               	movf	?___lwdiv,w
  7326  121A  00A3               	movwf	utoa@val
  7327  121B                     l3957:	
  7328  121B  300A               	movlw	10
  7329  121C  022A               	subwf	utoa@c,w
  7330  121D  1C03               	skipc
  7331  121E  2A20               	goto	u5271
  7332  121F  2A21               	goto	u5270
  7333  1220                     u5271:	
  7334  1220  2A25               	goto	l885
  7335  1221                     u5270:	
  7336  1221                     l3959:	
  7337  1221  3007               	movlw	7
  7338  1222  00A7               	movwf	??_utoa
  7339  1223  0827               	movf	??_utoa,w
  7340  1224  07AA               	addwf	utoa@c,f
  7341  1225                     l885:	
  7342  1225  3030               	movlw	48
  7343  1226  00A7               	movwf	??_utoa
  7344  1227  0827               	movf	??_utoa,w
  7345  1228  07AA               	addwf	utoa@c,f
  7346  1229                     l3961:	
  7347  1229  082A               	movf	utoa@c,w
  7348  122A  00A7               	movwf	??_utoa
  7349  122B  082B               	movf	utoa@buf,w
  7350  122C  0084               	movwf	4
  7351  122D  0827               	movf	??_utoa,w
  7352  122E  1383               	bcf	3,7	;select IRP bank0
  7353  122F  0080               	movwf	0
  7354  1230                     l3963:	
  7355  1230  3001               	movlw	1
  7356  1231  02AB               	subwf	utoa@buf,f
  7357  1232                     l3965:	
  7358  1232  0823               	movf	utoa@val,w
  7359  1233  0424               	iorwf	utoa@val+1,w
  7360  1234  1D03               	btfss	3,2
  7361  1235  2A37               	goto	u5281
  7362  1236  2A38               	goto	u5280
  7363  1237                     u5281:	
  7364  1237  29F5               	goto	l3953
  7365  1238                     u5280:	
  7366  1238                     l3967:	
  7367                           
  7368                           ;	Return value of _utoa is never used
  7369  1238  3001               	movlw	1
  7370  1239  00A7               	movwf	??_utoa
  7371  123A  0827               	movf	??_utoa,w
  7372  123B  07AB               	addwf	utoa@buf,f
  7373  123C                     l887:	
  7374  123C  0008               	return
  7375  123D                     __end_of_utoa:	
  7376                           
  7377                           	psect	text15
  7378  1F3A                     __ptext15:	
  7379 ;; *************** function ___lwmod *****************
  7380 ;; Defined at:
  7381 ;;		line 5 in file "C:\Program Files (x86)\Microchip\xc8\v2.10\pic\sources\c90\common\lwmod.c"
  7382 ;; Parameters:    Size  Location     Type
  7383 ;;  divisor         2    3[COMMON] unsigned int 
  7384 ;;  dividend        2    5[COMMON] unsigned int 
  7385 ;; Auto vars:     Size  Location     Type
  7386 ;;  counter         1    8[COMMON] unsigned char 
  7387 ;; Return value:  Size  Location     Type
  7388 ;;                  2    3[COMMON] unsigned int 
  7389 ;; Registers used:
  7390 ;;		wreg, status,2, status,0
  7391 ;; Tracked objects:
  7392 ;;		On entry : 0/0
  7393 ;;		On exit  : 0/0
  7394 ;;		Unchanged: 0/0
  7395 ;; Data sizes:     COMMON   BANK0   BANK1   BANK3   BANK2
  7396 ;;      Params:         4       0       0       0       0
  7397 ;;      Locals:         1       0       0       0       0
  7398 ;;      Temps:          1       0       0       0       0
  7399 ;;      Totals:         6       0       0       0       0
  7400 ;;Total ram usage:        6 bytes
  7401 ;; Hardware stack levels used:    1
  7402 ;; Hardware stack levels required when called:    1
  7403 ;; This function calls:
  7404 ;;		Nothing
  7405 ;; This function is called by:
  7406 ;;		_utoa
  7407 ;; This function uses a non-reentrant model
  7408 ;;
  7409                           
  7410                           
  7411                           ;psect for function ___lwmod
  7412  1F3A                     ___lwmod:	
  7413  1F3A                     l2487:	
  7414                           ;incstack = 0
  7415                           ; Regs used in ___lwmod: [wreg+status,2+status,0]
  7416                           
  7417  1F3A  0873               	movf	___lwmod@divisor,w
  7418  1F3B  0474               	iorwf	___lwmod@divisor+1,w
  7419  1F3C  1903               	btfsc	3,2
  7420  1F3D  2F3F               	goto	u2711
  7421  1F3E  2F40               	goto	u2710
  7422  1F3F                     u2711:	
  7423  1F3F  2F6F               	goto	l2505
  7424  1F40                     u2710:	
  7425  1F40                     l2489:	
  7426  1F40  01F8               	clrf	___lwmod@counter
  7427  1F41  0AF8               	incf	___lwmod@counter,f
  7428  1F42  2F4E               	goto	l2495
  7429  1F43                     l2491:	
  7430  1F43  3001               	movlw	1
  7431  1F44                     u2725:	
  7432  1F44  1003               	clrc
  7433  1F45  0DF3               	rlf	___lwmod@divisor,f
  7434  1F46  0DF4               	rlf	___lwmod@divisor+1,f
  7435  1F47  3EFF               	addlw	-1
  7436  1F48  1D03               	skipz
  7437  1F49  2F44               	goto	u2725
  7438  1F4A                     l2493:	
  7439  1F4A  3001               	movlw	1
  7440  1F4B  00F7               	movwf	??___lwmod
  7441  1F4C  0877               	movf	??___lwmod,w
  7442  1F4D  07F8               	addwf	___lwmod@counter,f
  7443  1F4E                     l2495:	
  7444  1F4E  1FF4               	btfss	___lwmod@divisor+1,7
  7445  1F4F  2F51               	goto	u2731
  7446  1F50  2F52               	goto	u2730
  7447  1F51                     u2731:	
  7448  1F51  2F43               	goto	l2491
  7449  1F52                     u2730:	
  7450  1F52                     l2497:	
  7451  1F52  0874               	movf	___lwmod@divisor+1,w
  7452  1F53  0276               	subwf	___lwmod@dividend+1,w
  7453  1F54  1D03               	skipz
  7454  1F55  2F58               	goto	u2745
  7455  1F56  0873               	movf	___lwmod@divisor,w
  7456  1F57  0275               	subwf	___lwmod@dividend,w
  7457  1F58                     u2745:	
  7458  1F58  1C03               	skipc
  7459  1F59  2F5B               	goto	u2741
  7460  1F5A  2F5C               	goto	u2740
  7461  1F5B                     u2741:	
  7462  1F5B  2F62               	goto	l2501
  7463  1F5C                     u2740:	
  7464  1F5C                     l2499:	
  7465  1F5C  0873               	movf	___lwmod@divisor,w
  7466  1F5D  02F5               	subwf	___lwmod@dividend,f
  7467  1F5E  0874               	movf	___lwmod@divisor+1,w
  7468  1F5F  1C03               	skipc
  7469  1F60  03F6               	decf	___lwmod@dividend+1,f
  7470  1F61  02F6               	subwf	___lwmod@dividend+1,f
  7471  1F62                     l2501:	
  7472  1F62  3001               	movlw	1
  7473  1F63                     u2755:	
  7474  1F63  1003               	clrc
  7475  1F64  0CF4               	rrf	___lwmod@divisor+1,f
  7476  1F65  0CF3               	rrf	___lwmod@divisor,f
  7477  1F66  3EFF               	addlw	-1
  7478  1F67  1D03               	skipz
  7479  1F68  2F63               	goto	u2755
  7480  1F69                     l2503:	
  7481  1F69  3001               	movlw	1
  7482  1F6A  02F8               	subwf	___lwmod@counter,f
  7483  1F6B  1D03               	btfss	3,2
  7484  1F6C  2F6E               	goto	u2761
  7485  1F6D  2F6F               	goto	u2760
  7486  1F6E                     u2761:	
  7487  1F6E  2F52               	goto	l2497
  7488  1F6F                     u2760:	
  7489  1F6F                     l2505:	
  7490  1F6F  0876               	movf	___lwmod@dividend+1,w
  7491  1F70  00F4               	movwf	?___lwmod+1
  7492  1F71  0875               	movf	___lwmod@dividend,w
  7493  1F72  00F3               	movwf	?___lwmod
  7494  1F73                     l713:	
  7495  1F73  0008               	return
  7496  1F74                     __end_of___lwmod:	
  7497                           
  7498                           	psect	text16
  7499  1FBA                     __ptext16:	
  7500 ;; *************** function ___lwdiv *****************
  7501 ;; Defined at:
  7502 ;;		line 5 in file "C:\Program Files (x86)\Microchip\xc8\v2.10\pic\sources\c90\common\lwdiv.c"
  7503 ;; Parameters:    Size  Location     Type
  7504 ;;  divisor         2    3[COMMON] unsigned int 
  7505 ;;  dividend        2    5[COMMON] unsigned int 
  7506 ;; Auto vars:     Size  Location     Type
  7507 ;;  quotient        2    1[BANK0 ] unsigned int 
  7508 ;;  counter         1    0[BANK0 ] unsigned char 
  7509 ;; Return value:  Size  Location     Type
  7510 ;;                  2    3[COMMON] unsigned int 
  7511 ;; Registers used:
  7512 ;;		wreg, status,2, status,0
  7513 ;; Tracked objects:
  7514 ;;		On entry : 0/0
  7515 ;;		On exit  : 0/0
  7516 ;;		Unchanged: 0/0
  7517 ;; Data sizes:     COMMON   BANK0   BANK1   BANK3   BANK2
  7518 ;;      Params:         4       0       0       0       0
  7519 ;;      Locals:         0       3       0       0       0
  7520 ;;      Temps:          1       0       0       0       0
  7521 ;;      Totals:         5       3       0       0       0
  7522 ;;Total ram usage:        8 bytes
  7523 ;; Hardware stack levels used:    1
  7524 ;; Hardware stack levels required when called:    1
  7525 ;; This function calls:
  7526 ;;		Nothing
  7527 ;; This function is called by:
  7528 ;;		_utoa
  7529 ;; This function uses a non-reentrant model
  7530 ;;
  7531                           
  7532                           
  7533                           ;psect for function ___lwdiv
  7534  1FBA                     ___lwdiv:	
  7535  1FBA                     l3915:	
  7536                           ;incstack = 0
  7537                           ; Regs used in ___lwdiv: [wreg+status,2+status,0]
  7538                           
  7539  1FBA  1283               	bcf	3,5	;RP0=0, select bank0
  7540  1FBB  1303               	bcf	3,6	;RP1=0, select bank0
  7541  1FBC  01A1               	clrf	___lwdiv@quotient
  7542  1FBD  01A2               	clrf	___lwdiv@quotient+1
  7543  1FBE                     l3917:	
  7544  1FBE  0873               	movf	___lwdiv@divisor,w
  7545  1FBF  0474               	iorwf	___lwdiv@divisor+1,w
  7546  1FC0  1903               	btfsc	3,2
  7547  1FC1  2FC3               	goto	u5191
  7548  1FC2  2FC4               	goto	u5190
  7549  1FC3                     u5191:	
  7550  1FC3  2FFB               	goto	l3937
  7551  1FC4                     u5190:	
  7552  1FC4                     l3919:	
  7553  1FC4  01A0               	clrf	___lwdiv@counter
  7554  1FC5  0AA0               	incf	___lwdiv@counter,f
  7555  1FC6  2FD2               	goto	l3925
  7556  1FC7                     l3921:	
  7557  1FC7  3001               	movlw	1
  7558  1FC8                     u5205:	
  7559  1FC8  1003               	clrc
  7560  1FC9  0DF3               	rlf	___lwdiv@divisor,f
  7561  1FCA  0DF4               	rlf	___lwdiv@divisor+1,f
  7562  1FCB  3EFF               	addlw	-1
  7563  1FCC  1D03               	skipz
  7564  1FCD  2FC8               	goto	u5205
  7565  1FCE                     l3923:	
  7566  1FCE  3001               	movlw	1
  7567  1FCF  00F7               	movwf	??___lwdiv
  7568  1FD0  0877               	movf	??___lwdiv,w
  7569  1FD1  07A0               	addwf	___lwdiv@counter,f
  7570  1FD2                     l3925:	
  7571  1FD2  1FF4               	btfss	___lwdiv@divisor+1,7
  7572  1FD3  2FD5               	goto	u5211
  7573  1FD4  2FD6               	goto	u5210
  7574  1FD5                     u5211:	
  7575  1FD5  2FC7               	goto	l3921
  7576  1FD6                     u5210:	
  7577  1FD6                     l3927:	
  7578  1FD6  3001               	movlw	1
  7579  1FD7                     u5225:	
  7580  1FD7  1003               	clrc
  7581  1FD8  0DA1               	rlf	___lwdiv@quotient,f
  7582  1FD9  0DA2               	rlf	___lwdiv@quotient+1,f
  7583  1FDA  3EFF               	addlw	-1
  7584  1FDB  1D03               	skipz
  7585  1FDC  2FD7               	goto	u5225
  7586  1FDD  0874               	movf	___lwdiv@divisor+1,w
  7587  1FDE  0276               	subwf	___lwdiv@dividend+1,w
  7588  1FDF  1D03               	skipz
  7589  1FE0  2FE3               	goto	u5235
  7590  1FE1  0873               	movf	___lwdiv@divisor,w
  7591  1FE2  0275               	subwf	___lwdiv@dividend,w
  7592  1FE3                     u5235:	
  7593  1FE3  1C03               	skipc
  7594  1FE4  2FE6               	goto	u5231
  7595  1FE5  2FE7               	goto	u5230
  7596  1FE6                     u5231:	
  7597  1FE6  2FEE               	goto	l3933
  7598  1FE7                     u5230:	
  7599  1FE7                     l3929:	
  7600  1FE7  0873               	movf	___lwdiv@divisor,w
  7601  1FE8  02F5               	subwf	___lwdiv@dividend,f
  7602  1FE9  0874               	movf	___lwdiv@divisor+1,w
  7603  1FEA  1C03               	skipc
  7604  1FEB  03F6               	decf	___lwdiv@dividend+1,f
  7605  1FEC  02F6               	subwf	___lwdiv@dividend+1,f
  7606  1FED                     l3931:	
  7607  1FED  1421               	bsf	___lwdiv@quotient,0
  7608  1FEE                     l3933:	
  7609  1FEE  3001               	movlw	1
  7610  1FEF                     u5245:	
  7611  1FEF  1003               	clrc
  7612  1FF0  0CF4               	rrf	___lwdiv@divisor+1,f
  7613  1FF1  0CF3               	rrf	___lwdiv@divisor,f
  7614  1FF2  3EFF               	addlw	-1
  7615  1FF3  1D03               	skipz
  7616  1FF4  2FEF               	goto	u5245
  7617  1FF5                     l3935:	
  7618  1FF5  3001               	movlw	1
  7619  1FF6  02A0               	subwf	___lwdiv@counter,f
  7620  1FF7  1D03               	btfss	3,2
  7621  1FF8  2FFA               	goto	u5251
  7622  1FF9  2FFB               	goto	u5250
  7623  1FFA                     u5251:	
  7624  1FFA  2FD6               	goto	l3927
  7625  1FFB                     u5250:	
  7626  1FFB                     l3937:	
  7627  1FFB  0822               	movf	___lwdiv@quotient+1,w
  7628  1FFC  00F4               	movwf	?___lwdiv+1
  7629  1FFD  0821               	movf	___lwdiv@quotient,w
  7630  1FFE  00F3               	movwf	?___lwdiv
  7631  1FFF                     l703:	
  7632  1FFF  0008               	return
  7633  2000                     __end_of___lwdiv:	
  7634                           
  7635                           	psect	text17
  7636  1E8D                     __ptext17:	
  7637 ;; *************** function ___wmul *****************
  7638 ;; Defined at:
  7639 ;;		line 15 in file "C:\Program Files (x86)\Microchip\xc8\v2.10\pic\sources\c90\common\Umul16.c"
  7640 ;; Parameters:    Size  Location     Type
  7641 ;;  multiplier      2    3[COMMON] unsigned int 
  7642 ;;  multiplicand    2    5[COMMON] unsigned int 
  7643 ;; Auto vars:     Size  Location     Type
  7644 ;;  product         2    7[COMMON] unsigned int 
  7645 ;; Return value:  Size  Location     Type
  7646 ;;                  2    3[COMMON] unsigned int 
  7647 ;; Registers used:
  7648 ;;		wreg, status,2, status,0
  7649 ;; Tracked objects:
  7650 ;;		On entry : 0/0
  7651 ;;		On exit  : 0/0
  7652 ;;		Unchanged: 0/0
  7653 ;; Data sizes:     COMMON   BANK0   BANK1   BANK3   BANK2
  7654 ;;      Params:         4       0       0       0       0
  7655 ;;      Locals:         2       0       0       0       0
  7656 ;;      Temps:          0       0       0       0       0
  7657 ;;      Totals:         6       0       0       0       0
  7658 ;;Total ram usage:        6 bytes
  7659 ;; Hardware stack levels used:    1
  7660 ;; Hardware stack levels required when called:    1
  7661 ;; This function calls:
  7662 ;;		Nothing
  7663 ;; This function is called by:
  7664 ;;		_MostrarCreditos
  7665 ;; This function uses a non-reentrant model
  7666 ;;
  7667                           
  7668                           
  7669                           ;psect for function ___wmul
  7670  1E8D                     ___wmul:	
  7671  1E8D                     l2605:	
  7672                           ;incstack = 0
  7673                           ; Regs used in ___wmul: [wreg+status,2+status,0]
  7674                           
  7675  1E8D  01F7               	clrf	___wmul@product
  7676  1E8E  01F8               	clrf	___wmul@product+1
  7677  1E8F                     l2607:	
  7678  1E8F  1C73               	btfss	___wmul@multiplier,0
  7679  1E90  2E92               	goto	u2881
  7680  1E91  2E93               	goto	u2880
  7681  1E92                     u2881:	
  7682  1E92  2E99               	goto	l431
  7683  1E93                     u2880:	
  7684  1E93                     l2609:	
  7685  1E93  0875               	movf	___wmul@multiplicand,w
  7686  1E94  07F7               	addwf	___wmul@product,f
  7687  1E95  1803               	skipnc
  7688  1E96  0AF8               	incf	___wmul@product+1,f
  7689  1E97  0876               	movf	___wmul@multiplicand+1,w
  7690  1E98  07F8               	addwf	___wmul@product+1,f
  7691  1E99                     l431:	
  7692  1E99  3001               	movlw	1
  7693  1E9A                     u2895:	
  7694  1E9A  1003               	clrc
  7695  1E9B  0DF5               	rlf	___wmul@multiplicand,f
  7696  1E9C  0DF6               	rlf	___wmul@multiplicand+1,f
  7697  1E9D  3EFF               	addlw	-1
  7698  1E9E  1D03               	skipz
  7699  1E9F  2E9A               	goto	u2895
  7700  1EA0                     l2611:	
  7701  1EA0  3001               	movlw	1
  7702  1EA1                     u2905:	
  7703  1EA1  1003               	clrc
  7704  1EA2  0CF4               	rrf	___wmul@multiplier+1,f
  7705  1EA3  0CF3               	rrf	___wmul@multiplier,f
  7706  1EA4  3EFF               	addlw	-1
  7707  1EA5  1D03               	skipz
  7708  1EA6  2EA1               	goto	u2905
  7709  1EA7                     l2613:	
  7710  1EA7  0873               	movf	___wmul@multiplier,w
  7711  1EA8  0474               	iorwf	___wmul@multiplier+1,w
  7712  1EA9  1D03               	btfss	3,2
  7713  1EAA  2EAC               	goto	u2911
  7714  1EAB  2EAD               	goto	u2910
  7715  1EAC                     u2911:	
  7716  1EAC  2E8F               	goto	l2607
  7717  1EAD                     u2910:	
  7718  1EAD                     l2615:	
  7719  1EAD  0878               	movf	___wmul@product+1,w
  7720  1EAE  00F4               	movwf	?___wmul+1
  7721  1EAF  0877               	movf	___wmul@product,w
  7722  1EB0  00F3               	movwf	?___wmul
  7723  1EB1                     l433:	
  7724  1EB1  0008               	return
  7725  1EB2                     __end_of___wmul:	
  7726                           
  7727                           	psect	text18
  7728  123D                     __ptext18:	
  7729 ;; *************** function ___fltol *****************
  7730 ;; Defined at:
  7731 ;;		line 43 in file "C:\Program Files (x86)\Microchip\xc8\v2.10\pic\sources\c90\common\fltol.c"
  7732 ;; Parameters:    Size  Location     Type
  7733 ;;  f1              4   36[BANK0 ] unsigned int 
  7734 ;; Auto vars:     Size  Location     Type
  7735 ;;  exp1            1    8[COMMON] unsigned char 
  7736 ;;  sign1           1    7[COMMON] unsigned char 
  7737 ;; Return value:  Size  Location     Type
  7738 ;;                  4   36[BANK0 ] long 
  7739 ;; Registers used:
  7740 ;;		wreg, status,2, status,0
  7741 ;; Tracked objects:
  7742 ;;		On entry : 0/0
  7743 ;;		On exit  : 0/0
  7744 ;;		Unchanged: 0/0
  7745 ;; Data sizes:     COMMON   BANK0   BANK1   BANK3   BANK2
  7746 ;;      Params:         0       4       0       0       0
  7747 ;;      Locals:         2       0       0       0       0
  7748 ;;      Temps:          0       5       0       0       0
  7749 ;;      Totals:         2       9       0       0       0
  7750 ;;Total ram usage:       11 bytes
  7751 ;; Hardware stack levels used:    1
  7752 ;; Hardware stack levels required when called:    1
  7753 ;; This function calls:
  7754 ;;		Nothing
  7755 ;; This function is called by:
  7756 ;;		_main
  7757 ;;		_Medir
  7758 ;;		_MostrarCreditos
  7759 ;; This function uses a non-reentrant model
  7760 ;;
  7761                           
  7762                           
  7763                           ;psect for function ___fltol
  7764  123D                     ___fltol:	
  7765  123D                     l3993:	
  7766                           ;incstack = 0
  7767                           ; Regs used in ___fltol: [wreg+status,2+status,0]
  7768                           
  7769  123D  1003               	clrc
  7770  123E  1283               	bcf	3,5	;RP0=0, select bank0
  7771  123F  1303               	bcf	3,6	;RP1=0, select bank0
  7772  1240  0D46               	rlf	___fltol@f1+2,w
  7773  1241  0D47               	rlf	___fltol@f1+3,w
  7774  1242  00C8               	movwf	??___fltol
  7775  1243  0848               	movf	??___fltol,w
  7776  1244  00F8               	movwf	___fltol@exp1
  7777  1245  0878               	movf	___fltol@exp1,w
  7778  1246  1D03               	btfss	3,2
  7779  1247  2A49               	goto	u5331
  7780  1248  2A4A               	goto	u5330
  7781  1249                     u5331:	
  7782  1249  2A53               	goto	l3999
  7783  124A                     u5330:	
  7784  124A                     l3995:	
  7785  124A  3000               	movlw	0
  7786  124B  00C7               	movwf	?___fltol+3
  7787  124C  3000               	movlw	0
  7788  124D  00C6               	movwf	?___fltol+2
  7789  124E  3000               	movlw	0
  7790  124F  00C5               	movwf	?___fltol+1
  7791  1250  3000               	movlw	0
  7792  1251  00C4               	movwf	?___fltol
  7793  1252  2AB8               	goto	l617
  7794  1253                     l3999:	
  7795  1253  0844               	movf	___fltol@f1,w
  7796  1254  00C8               	movwf	??___fltol
  7797  1255  0845               	movf	___fltol@f1+1,w
  7798  1256  00C9               	movwf	??___fltol+1
  7799  1257  0846               	movf	___fltol@f1+2,w
  7800  1258  00CA               	movwf	??___fltol+2
  7801  1259  0847               	movf	___fltol@f1+3,w
  7802  125A  00CB               	movwf	??___fltol+3
  7803  125B  301F               	movlw	31
  7804  125C                     u5345:	
  7805  125C  1003               	clrc
  7806  125D  0CCB               	rrf	??___fltol+3,f
  7807  125E  0CCA               	rrf	??___fltol+2,f
  7808  125F  0CC9               	rrf	??___fltol+1,f
  7809  1260  0CC8               	rrf	??___fltol,f
  7810  1261                     u5340:	
  7811  1261  3EFF               	addlw	-1
  7812  1262  1D03               	skipz
  7813  1263  2A5C               	goto	u5345
  7814  1264  0848               	movf	??___fltol,w
  7815  1265  00CC               	movwf	??___fltol+4
  7816  1266  084C               	movf	??___fltol+4,w
  7817  1267  00F7               	movwf	___fltol@sign1
  7818  1268                     l4001:	
  7819  1268  17C6               	bsf	___fltol@f1+2,7
  7820  1269                     l4003:	
  7821  1269  30FF               	movlw	255
  7822  126A  05C4               	andwf	___fltol@f1,f
  7823  126B  30FF               	movlw	255
  7824  126C  05C5               	andwf	___fltol@f1+1,f
  7825  126D  30FF               	movlw	255
  7826  126E  05C6               	andwf	___fltol@f1+2,f
  7827  126F  3000               	movlw	0
  7828  1270  05C7               	andwf	___fltol@f1+3,f
  7829  1271                     l4005:	
  7830  1271  3096               	movlw	150
  7831  1272  02F8               	subwf	___fltol@exp1,f
  7832  1273                     l4007:	
  7833  1273  1FF8               	btfss	___fltol@exp1,7
  7834  1274  2A76               	goto	u5351
  7835  1275  2A77               	goto	u5350
  7836  1276                     u5351:	
  7837  1276  2A91               	goto	l4017
  7838  1277                     u5350:	
  7839  1277                     l4009:	
  7840  1277  0878               	movf	___fltol@exp1,w
  7841  1278  3A80               	xorlw	128
  7842  1279  3E97               	addlw	151
  7843  127A  1803               	skipnc
  7844  127B  2A7D               	goto	u5361
  7845  127C  2A7E               	goto	u5360
  7846  127D                     u5361:	
  7847  127D  2A7F               	goto	l4015
  7848  127E                     u5360:	
  7849  127E  2A4A               	goto	l3995
  7850  127F                     l4015:	
  7851  127F  3001               	movlw	1
  7852  1280                     u5375:	
  7853  1280  1003               	clrc
  7854  1281  0CC7               	rrf	___fltol@f1+3,f
  7855  1282  0CC6               	rrf	___fltol@f1+2,f
  7856  1283  0CC5               	rrf	___fltol@f1+1,f
  7857  1284  0CC4               	rrf	___fltol@f1,f
  7858  1285  3EFF               	addlw	-1
  7859  1286  1D03               	skipz
  7860  1287  2A80               	goto	u5375
  7861  1288  3001               	movlw	1
  7862  1289  00C8               	movwf	??___fltol
  7863  128A  0848               	movf	??___fltol,w
  7864  128B  07F8               	addwf	___fltol@exp1,f
  7865  128C  1D03               	btfss	3,2
  7866  128D  2A8F               	goto	u5381
  7867  128E  2A90               	goto	u5380
  7868  128F                     u5381:	
  7869  128F  2A7F               	goto	l4015
  7870  1290                     u5380:	
  7871  1290  2AA8               	goto	l4025
  7872  1291                     l4017:	
  7873  1291  3020               	movlw	32
  7874  1292  0278               	subwf	___fltol@exp1,w
  7875  1293  1C03               	skipc
  7876  1294  2A96               	goto	u5391
  7877  1295  2A97               	goto	u5390
  7878  1296                     u5391:	
  7879  1296  2AA3               	goto	l624
  7880  1297                     u5390:	
  7881  1297  2A4A               	goto	l3995
  7882  1298                     l4023:	
  7883  1298  3001               	movlw	1
  7884  1299  00C8               	movwf	??___fltol
  7885  129A                     u5405:	
  7886  129A  1003               	clrc
  7887  129B  0DC4               	rlf	___fltol@f1,f
  7888  129C  0DC5               	rlf	___fltol@f1+1,f
  7889  129D  0DC6               	rlf	___fltol@f1+2,f
  7890  129E  0DC7               	rlf	___fltol@f1+3,f
  7891  129F  0BC8               	decfsz	??___fltol,f
  7892  12A0  2A9A               	goto	u5405
  7893  12A1  3001               	movlw	1
  7894  12A2  02F8               	subwf	___fltol@exp1,f
  7895  12A3                     l624:	
  7896  12A3  0878               	movf	___fltol@exp1,w
  7897  12A4  1D03               	btfss	3,2
  7898  12A5  2AA7               	goto	u5411
  7899  12A6  2AA8               	goto	u5410
  7900  12A7                     u5411:	
  7901  12A7  2A98               	goto	l4023
  7902  12A8                     u5410:	
  7903  12A8                     l4025:	
  7904  12A8  0877               	movf	___fltol@sign1,w
  7905  12A9  1903               	btfsc	3,2
  7906  12AA  2AAC               	goto	u5421
  7907  12AB  2AAD               	goto	u5420
  7908  12AC                     u5421:	
  7909  12AC  2AB8               	goto	l627
  7910  12AD                     u5420:	
  7911  12AD                     l4027:	
  7912  12AD  09C4               	comf	___fltol@f1,f
  7913  12AE  09C5               	comf	___fltol@f1+1,f
  7914  12AF  09C6               	comf	___fltol@f1+2,f
  7915  12B0  09C7               	comf	___fltol@f1+3,f
  7916  12B1  0AC4               	incf	___fltol@f1,f
  7917  12B2  1903               	skipnz
  7918  12B3  0AC5               	incf	___fltol@f1+1,f
  7919  12B4  1903               	skipnz
  7920  12B5  0AC6               	incf	___fltol@f1+2,f
  7921  12B6  1903               	skipnz
  7922  12B7  0AC7               	incf	___fltol@f1+3,f
  7923  12B8                     l627:	
  7924  12B8                     l617:	
  7925  12B8  0008               	return
  7926  12B9                     __end_of___fltol:	
  7927                           
  7928                           	psect	text19
  7929  0C9F                     __ptext19:	
  7930 ;; *************** function ___flmul *****************
  7931 ;; Defined at:
  7932 ;;		line 8 in file "C:\Program Files (x86)\Microchip\xc8\v2.10\pic\sources\c90\common\sprcmul.c"
  7933 ;; Parameters:    Size  Location     Type
  7934 ;;  b               4    5[BANK0 ] long 
  7935 ;;  a               4    9[BANK0 ] long 
  7936 ;; Auto vars:     Size  Location     Type
  7937 ;;  prod            4   25[BANK0 ] struct .
  7938 ;;  grs             4   19[BANK0 ] unsigned long 
  7939 ;;  temp            2   29[BANK0 ] struct .
  7940 ;;  bexp            1   24[BANK0 ] unsigned char 
  7941 ;;  aexp            1   23[BANK0 ] unsigned char 
  7942 ;;  sign            1   18[BANK0 ] unsigned char 
  7943 ;; Return value:  Size  Location     Type
  7944 ;;                  4    5[BANK0 ] unsigned char 
  7945 ;; Registers used:
  7946 ;;		wreg, status,2, status,0, btemp+1, pclath, cstack
  7947 ;; Tracked objects:
  7948 ;;		On entry : 0/0
  7949 ;;		On exit  : 0/0
  7950 ;;		Unchanged: 0/0
  7951 ;; Data sizes:     COMMON   BANK0   BANK1   BANK3   BANK2
  7952 ;;      Params:         0       8       0       0       0
  7953 ;;      Locals:         0      13       0       0       0
  7954 ;;      Temps:          0       5       0       0       0
  7955 ;;      Totals:         0      26       0       0       0
  7956 ;;Total ram usage:       26 bytes
  7957 ;; Hardware stack levels used:    1
  7958 ;; Hardware stack levels required when called:    2
  7959 ;; This function calls:
  7960 ;;		__Umul8_16
  7961 ;; This function is called by:
  7962 ;;		_MostrarCreditos
  7963 ;; This function uses a non-reentrant model
  7964 ;;
  7965                           
  7966                           
  7967                           ;psect for function ___flmul
  7968  0C9F                     ___flmul:	
  7969  0C9F                     l2797:	
  7970                           ;incstack = 0
  7971                           ; Regs used in ___flmul: [wreg+status,2+status,0+btemp+1+pclath+cstack]
  7972                           
  7973  0C9F  1283               	bcf	3,5	;RP0=0, select bank0
  7974  0CA0  1303               	bcf	3,6	;RP1=0, select bank0
  7975  0CA1  0828               	movf	___flmul@b+3,w
  7976  0CA2  3980               	andlw	128
  7977  0CA3  00AD               	movwf	??___flmul
  7978  0CA4  082D               	movf	??___flmul,w
  7979  0CA5  00B2               	movwf	___flmul@sign
  7980  0CA6                     l2799:	
  7981  0CA6  0828               	movf	___flmul@b+3,w
  7982  0CA7  00AD               	movwf	??___flmul
  7983  0CA8  072D               	addwf	??___flmul,w
  7984  0CA9  00AE               	movwf	??___flmul+1
  7985  0CAA  082E               	movf	??___flmul+1,w
  7986  0CAB  00B8               	movwf	___flmul@bexp
  7987  0CAC                     l2801:	
  7988  0CAC  1FA7               	btfss	___flmul@b+2,7
  7989  0CAD  2CAF               	goto	u3311
  7990  0CAE  2CB0               	goto	u3310
  7991  0CAF                     u3311:	
  7992  0CAF  2CB1               	goto	l2805
  7993  0CB0                     u3310:	
  7994  0CB0                     l2803:	
  7995  0CB0  1438               	bsf	___flmul@bexp,0
  7996  0CB1                     l2805:	
  7997  0CB1  0838               	movf	___flmul@bexp,w
  7998  0CB2  1903               	btfsc	3,2
  7999  0CB3  2CB5               	goto	u3321
  8000  0CB4  2CB6               	goto	u3320
  8001  0CB5                     u3321:	
  8002  0CB5  2CC5               	goto	l2813
  8003  0CB6                     u3320:	
  8004  0CB6                     l2807:	
  8005  0CB6  0A38               	incf	___flmul@bexp,w
  8006  0CB7  1D03               	btfss	3,2
  8007  0CB8  2CBA               	goto	u3331
  8008  0CB9  2CBB               	goto	u3330
  8009  0CBA                     u3331:	
  8010  0CBA  2CC3               	goto	l2811
  8011  0CBB                     u3330:	
  8012  0CBB                     l2809:	
  8013  0CBB  3000               	movlw	0
  8014  0CBC  00A8               	movwf	___flmul@b+3
  8015  0CBD  3000               	movlw	0
  8016  0CBE  00A7               	movwf	___flmul@b+2
  8017  0CBF  3000               	movlw	0
  8018  0CC0  00A6               	movwf	___flmul@b+1
  8019  0CC1  3000               	movlw	0
  8020  0CC2  00A5               	movwf	___flmul@b
  8021  0CC3                     l2811:	
  8022  0CC3  17A7               	bsf	___flmul@b+2,7
  8023  0CC4  2CCD               	goto	l2815
  8024  0CC5                     l2813:	
  8025  0CC5  3000               	movlw	0
  8026  0CC6  00A8               	movwf	___flmul@b+3
  8027  0CC7  3000               	movlw	0
  8028  0CC8  00A7               	movwf	___flmul@b+2
  8029  0CC9  3000               	movlw	0
  8030  0CCA  00A6               	movwf	___flmul@b+1
  8031  0CCB  3000               	movlw	0
  8032  0CCC  00A5               	movwf	___flmul@b
  8033  0CCD                     l2815:	
  8034  0CCD  082C               	movf	___flmul@a+3,w
  8035  0CCE  3980               	andlw	128
  8036  0CCF  00AD               	movwf	??___flmul
  8037  0CD0  082D               	movf	??___flmul,w
  8038  0CD1  06B2               	xorwf	___flmul@sign,f
  8039  0CD2                     l2817:	
  8040  0CD2  082C               	movf	___flmul@a+3,w
  8041  0CD3  00AD               	movwf	??___flmul
  8042  0CD4  072D               	addwf	??___flmul,w
  8043  0CD5  00AE               	movwf	??___flmul+1
  8044  0CD6  082E               	movf	??___flmul+1,w
  8045  0CD7  00B7               	movwf	___flmul@aexp
  8046  0CD8                     l2819:	
  8047  0CD8  1FAB               	btfss	___flmul@a+2,7
  8048  0CD9  2CDB               	goto	u3341
  8049  0CDA  2CDC               	goto	u3340
  8050  0CDB                     u3341:	
  8051  0CDB  2CDD               	goto	l2823
  8052  0CDC                     u3340:	
  8053  0CDC                     l2821:	
  8054  0CDC  1437               	bsf	___flmul@aexp,0
  8055  0CDD                     l2823:	
  8056  0CDD  0837               	movf	___flmul@aexp,w
  8057  0CDE  1903               	btfsc	3,2
  8058  0CDF  2CE1               	goto	u3351
  8059  0CE0  2CE2               	goto	u3350
  8060  0CE1                     u3351:	
  8061  0CE1  2CF1               	goto	l2831
  8062  0CE2                     u3350:	
  8063  0CE2                     l2825:	
  8064  0CE2  0A37               	incf	___flmul@aexp,w
  8065  0CE3  1D03               	btfss	3,2
  8066  0CE4  2CE6               	goto	u3361
  8067  0CE5  2CE7               	goto	u3360
  8068  0CE6                     u3361:	
  8069  0CE6  2CEF               	goto	l2829
  8070  0CE7                     u3360:	
  8071  0CE7                     l2827:	
  8072  0CE7  3000               	movlw	0
  8073  0CE8  00AC               	movwf	___flmul@a+3
  8074  0CE9  3000               	movlw	0
  8075  0CEA  00AB               	movwf	___flmul@a+2
  8076  0CEB  3000               	movlw	0
  8077  0CEC  00AA               	movwf	___flmul@a+1
  8078  0CED  3000               	movlw	0
  8079  0CEE  00A9               	movwf	___flmul@a
  8080  0CEF                     l2829:	
  8081  0CEF  17AB               	bsf	___flmul@a+2,7
  8082  0CF0  2CF9               	goto	l2833
  8083  0CF1                     l2831:	
  8084  0CF1  3000               	movlw	0
  8085  0CF2  00AC               	movwf	___flmul@a+3
  8086  0CF3  3000               	movlw	0
  8087  0CF4  00AB               	movwf	___flmul@a+2
  8088  0CF5  3000               	movlw	0
  8089  0CF6  00AA               	movwf	___flmul@a+1
  8090  0CF7  3000               	movlw	0
  8091  0CF8  00A9               	movwf	___flmul@a
  8092  0CF9                     l2833:	
  8093  0CF9  0837               	movf	___flmul@aexp,w
  8094  0CFA  1903               	btfsc	3,2
  8095  0CFB  2CFD               	goto	u3371
  8096  0CFC  2CFE               	goto	u3370
  8097  0CFD                     u3371:	
  8098  0CFD  2D03               	goto	l2837
  8099  0CFE                     u3370:	
  8100  0CFE                     l2835:	
  8101  0CFE  0838               	movf	___flmul@bexp,w
  8102  0CFF  1D03               	btfss	3,2
  8103  0D00  2D02               	goto	u3381
  8104  0D01  2D03               	goto	u3380
  8105  0D02                     u3381:	
  8106  0D02  2D0C               	goto	l2841
  8107  0D03                     u3380:	
  8108  0D03                     l2837:	
  8109  0D03  3000               	movlw	0
  8110  0D04  00A8               	movwf	?___flmul+3
  8111  0D05  3000               	movlw	0
  8112  0D06  00A7               	movwf	?___flmul+2
  8113  0D07  3000               	movlw	0
  8114  0D08  00A6               	movwf	?___flmul+1
  8115  0D09  3000               	movlw	0
  8116  0D0A  00A5               	movwf	?___flmul
  8117  0D0B  2FFF               	goto	l820
  8118  0D0C                     l2841:	
  8119  0D0C  0825               	movf	___flmul@b,w
  8120  0D0D  00AD               	movwf	??___flmul
  8121  0D0E  082D               	movf	??___flmul,w
  8122  0D0F  00F3               	movwf	__Umul8_16@multiplicand
  8123  0D10  082B               	movf	___flmul@a+2,w
  8124  0D11  160A  158A  26D8  120A  158A  	fcall	__Umul8_16
  8125  0D16  0874               	movf	?__Umul8_16+1,w
  8126  0D17  1283               	bcf	3,5	;RP0=0, select bank0
  8127  0D18  1303               	bcf	3,6	;RP1=0, select bank0
  8128  0D19  00BE               	movwf	___flmul@temp+1
  8129  0D1A  0873               	movf	?__Umul8_16,w
  8130  0D1B  00BD               	movwf	___flmul@temp
  8131  0D1C                     l2843:	
  8132  0D1C  083D               	movf	___flmul@temp,w
  8133  0D1D  00AD               	movwf	??___flmul
  8134  0D1E  01AE               	clrf	??___flmul+1
  8135  0D1F  01AF               	clrf	??___flmul+2
  8136  0D20  01B0               	clrf	??___flmul+3
  8137  0D21  0830               	movf	??___flmul+3,w
  8138  0D22  00B6               	movwf	___flmul@grs+3
  8139  0D23  082F               	movf	??___flmul+2,w
  8140  0D24  00B5               	movwf	___flmul@grs+2
  8141  0D25  082E               	movf	??___flmul+1,w
  8142  0D26  00B4               	movwf	___flmul@grs+1
  8143  0D27  082D               	movf	??___flmul,w
  8144  0D28  00B3               	movwf	___flmul@grs
  8145  0D29                     l2845:	
  8146  0D29  083E               	movf	___flmul@temp+1,w
  8147  0D2A  00AD               	movwf	??___flmul
  8148  0D2B  01AE               	clrf	??___flmul+1
  8149  0D2C  01AF               	clrf	??___flmul+2
  8150  0D2D  01B0               	clrf	??___flmul+3
  8151  0D2E  0830               	movf	??___flmul+3,w
  8152  0D2F  00BC               	movwf	___flmul@prod+3
  8153  0D30  082F               	movf	??___flmul+2,w
  8154  0D31  00BB               	movwf	___flmul@prod+2
  8155  0D32  082E               	movf	??___flmul+1,w
  8156  0D33  00BA               	movwf	___flmul@prod+1
  8157  0D34  082D               	movf	??___flmul,w
  8158  0D35  00B9               	movwf	___flmul@prod
  8159  0D36  0826               	movf	___flmul@b+1,w
  8160  0D37  00AD               	movwf	??___flmul
  8161  0D38  082D               	movf	??___flmul,w
  8162  0D39  00F3               	movwf	__Umul8_16@multiplicand
  8163  0D3A  082A               	movf	___flmul@a+1,w
  8164  0D3B  160A  158A  26D8  120A  158A  	fcall	__Umul8_16
  8165  0D40  0874               	movf	?__Umul8_16+1,w
  8166  0D41  1283               	bcf	3,5	;RP0=0, select bank0
  8167  0D42  1303               	bcf	3,6	;RP1=0, select bank0
  8168  0D43  00BE               	movwf	___flmul@temp+1
  8169  0D44  0873               	movf	?__Umul8_16,w
  8170  0D45  00BD               	movwf	___flmul@temp
  8171  0D46                     l2847:	
  8172  0D46  083D               	movf	___flmul@temp,w
  8173  0D47  00AD               	movwf	??___flmul
  8174  0D48  01AE               	clrf	??___flmul+1
  8175  0D49  01AF               	clrf	??___flmul+2
  8176  0D4A  01B0               	clrf	??___flmul+3
  8177  0D4B  082D               	movf	??___flmul,w
  8178  0D4C  07B3               	addwf	___flmul@grs,f
  8179  0D4D  082E               	movf	??___flmul+1,w
  8180  0D4E  1103               	clrz
  8181  0D4F  1803               	skipnc
  8182  0D50  3E01               	addlw	1
  8183  0D51  1903               	skipnz
  8184  0D52  2D54               	goto	u3391
  8185  0D53  07B4               	addwf	___flmul@grs+1,f
  8186  0D54                     u3391:	
  8187  0D54  082F               	movf	??___flmul+2,w
  8188  0D55  1103               	clrz
  8189  0D56  1803               	skipnc
  8190  0D57  3E01               	addlw	1
  8191  0D58  1903               	skipnz
  8192  0D59  2D5B               	goto	u3392
  8193  0D5A  07B5               	addwf	___flmul@grs+2,f
  8194  0D5B                     u3392:	
  8195  0D5B  0830               	movf	??___flmul+3,w
  8196  0D5C  1103               	clrz
  8197  0D5D  1803               	skipnc
  8198  0D5E  3E01               	addlw	1
  8199  0D5F  1903               	skipnz
  8200  0D60  2D62               	goto	u3393
  8201  0D61  07B6               	addwf	___flmul@grs+3,f
  8202  0D62                     u3393:	
  8203  0D62                     l2849:	
  8204  0D62  083E               	movf	___flmul@temp+1,w
  8205  0D63  00AD               	movwf	??___flmul
  8206  0D64  01AE               	clrf	??___flmul+1
  8207  0D65  01AF               	clrf	??___flmul+2
  8208  0D66  01B0               	clrf	??___flmul+3
  8209  0D67  082D               	movf	??___flmul,w
  8210  0D68  07B9               	addwf	___flmul@prod,f
  8211  0D69  082E               	movf	??___flmul+1,w
  8212  0D6A  1103               	clrz
  8213  0D6B  1803               	skipnc
  8214  0D6C  3E01               	addlw	1
  8215  0D6D  1903               	skipnz
  8216  0D6E  2D70               	goto	u3401
  8217  0D6F  07BA               	addwf	___flmul@prod+1,f
  8218  0D70                     u3401:	
  8219  0D70  082F               	movf	??___flmul+2,w
  8220  0D71  1103               	clrz
  8221  0D72  1803               	skipnc
  8222  0D73  3E01               	addlw	1
  8223  0D74  1903               	skipnz
  8224  0D75  2D77               	goto	u3402
  8225  0D76  07BB               	addwf	___flmul@prod+2,f
  8226  0D77                     u3402:	
  8227  0D77  0830               	movf	??___flmul+3,w
  8228  0D78  1103               	clrz
  8229  0D79  1803               	skipnc
  8230  0D7A  3E01               	addlw	1
  8231  0D7B  1903               	skipnz
  8232  0D7C  2D7E               	goto	u3403
  8233  0D7D  07BC               	addwf	___flmul@prod+3,f
  8234  0D7E                     u3403:	
  8235  0D7E  0827               	movf	___flmul@b+2,w
  8236  0D7F  00AD               	movwf	??___flmul
  8237  0D80  082D               	movf	??___flmul,w
  8238  0D81  00F3               	movwf	__Umul8_16@multiplicand
  8239  0D82  0829               	movf	___flmul@a,w
  8240  0D83  160A  158A  26D8  120A  158A  	fcall	__Umul8_16
  8241  0D88  0874               	movf	?__Umul8_16+1,w
  8242  0D89  1283               	bcf	3,5	;RP0=0, select bank0
  8243  0D8A  1303               	bcf	3,6	;RP1=0, select bank0
  8244  0D8B  00BE               	movwf	___flmul@temp+1
  8245  0D8C  0873               	movf	?__Umul8_16,w
  8246  0D8D  00BD               	movwf	___flmul@temp
  8247  0D8E                     l2851:	
  8248  0D8E  083D               	movf	___flmul@temp,w
  8249  0D8F  00AD               	movwf	??___flmul
  8250  0D90  01AE               	clrf	??___flmul+1
  8251  0D91  01AF               	clrf	??___flmul+2
  8252  0D92  01B0               	clrf	??___flmul+3
  8253  0D93  082D               	movf	??___flmul,w
  8254  0D94  07B3               	addwf	___flmul@grs,f
  8255  0D95  082E               	movf	??___flmul+1,w
  8256  0D96  1103               	clrz
  8257  0D97  1803               	skipnc
  8258  0D98  3E01               	addlw	1
  8259  0D99  1903               	skipnz
  8260  0D9A  2D9C               	goto	u3411
  8261  0D9B  07B4               	addwf	___flmul@grs+1,f
  8262  0D9C                     u3411:	
  8263  0D9C  082F               	movf	??___flmul+2,w
  8264  0D9D  1103               	clrz
  8265  0D9E  1803               	skipnc
  8266  0D9F  3E01               	addlw	1
  8267  0DA0  1903               	skipnz
  8268  0DA1  2DA3               	goto	u3412
  8269  0DA2  07B5               	addwf	___flmul@grs+2,f
  8270  0DA3                     u3412:	
  8271  0DA3  0830               	movf	??___flmul+3,w
  8272  0DA4  1103               	clrz
  8273  0DA5  1803               	skipnc
  8274  0DA6  3E01               	addlw	1
  8275  0DA7  1903               	skipnz
  8276  0DA8  2DAA               	goto	u3413
  8277  0DA9  07B6               	addwf	___flmul@grs+3,f
  8278  0DAA                     u3413:	
  8279  0DAA                     l2853:	
  8280  0DAA  083E               	movf	___flmul@temp+1,w
  8281  0DAB  00AD               	movwf	??___flmul
  8282  0DAC  01AE               	clrf	??___flmul+1
  8283  0DAD  01AF               	clrf	??___flmul+2
  8284  0DAE  01B0               	clrf	??___flmul+3
  8285  0DAF  082D               	movf	??___flmul,w
  8286  0DB0  07B9               	addwf	___flmul@prod,f
  8287  0DB1  082E               	movf	??___flmul+1,w
  8288  0DB2  1103               	clrz
  8289  0DB3  1803               	skipnc
  8290  0DB4  3E01               	addlw	1
  8291  0DB5  1903               	skipnz
  8292  0DB6  2DB8               	goto	u3421
  8293  0DB7  07BA               	addwf	___flmul@prod+1,f
  8294  0DB8                     u3421:	
  8295  0DB8  082F               	movf	??___flmul+2,w
  8296  0DB9  1103               	clrz
  8297  0DBA  1803               	skipnc
  8298  0DBB  3E01               	addlw	1
  8299  0DBC  1903               	skipnz
  8300  0DBD  2DBF               	goto	u3422
  8301  0DBE  07BB               	addwf	___flmul@prod+2,f
  8302  0DBF                     u3422:	
  8303  0DBF  0830               	movf	??___flmul+3,w
  8304  0DC0  1103               	clrz
  8305  0DC1  1803               	skipnc
  8306  0DC2  3E01               	addlw	1
  8307  0DC3  1903               	skipnz
  8308  0DC4  2DC6               	goto	u3423
  8309  0DC5  07BC               	addwf	___flmul@prod+3,f
  8310  0DC6                     u3423:	
  8311  0DC6                     l2855:	
  8312  0DC6  3008               	movlw	8
  8313  0DC7  00AD               	movwf	??___flmul
  8314  0DC8                     u3435:	
  8315  0DC8  1003               	clrc
  8316  0DC9  0DB3               	rlf	___flmul@grs,f
  8317  0DCA  0DB4               	rlf	___flmul@grs+1,f
  8318  0DCB  0DB5               	rlf	___flmul@grs+2,f
  8319  0DCC  0DB6               	rlf	___flmul@grs+3,f
  8320  0DCD  0BAD               	decfsz	??___flmul,f
  8321  0DCE  2DC8               	goto	u3435
  8322  0DCF                     l2857:	
  8323  0DCF  0826               	movf	___flmul@b+1,w
  8324  0DD0  00AD               	movwf	??___flmul
  8325  0DD1  082D               	movf	??___flmul,w
  8326  0DD2  00F3               	movwf	__Umul8_16@multiplicand
  8327  0DD3  0829               	movf	___flmul@a,w
  8328  0DD4  160A  158A  26D8  120A  158A  	fcall	__Umul8_16
  8329  0DD9  0874               	movf	?__Umul8_16+1,w
  8330  0DDA  1283               	bcf	3,5	;RP0=0, select bank0
  8331  0DDB  1303               	bcf	3,6	;RP1=0, select bank0
  8332  0DDC  00BE               	movwf	___flmul@temp+1
  8333  0DDD  0873               	movf	?__Umul8_16,w
  8334  0DDE  00BD               	movwf	___flmul@temp
  8335  0DDF                     l2859:	
  8336  0DDF  083D               	movf	___flmul@temp,w
  8337  0DE0  00AD               	movwf	??___flmul
  8338  0DE1  083E               	movf	___flmul@temp+1,w
  8339  0DE2  00AE               	movwf	??___flmul+1
  8340  0DE3  01AF               	clrf	??___flmul+2
  8341  0DE4  01B0               	clrf	??___flmul+3
  8342  0DE5  082D               	movf	??___flmul,w
  8343  0DE6  07B3               	addwf	___flmul@grs,f
  8344  0DE7  082E               	movf	??___flmul+1,w
  8345  0DE8  1103               	clrz
  8346  0DE9  1803               	skipnc
  8347  0DEA  3E01               	addlw	1
  8348  0DEB  1903               	skipnz
  8349  0DEC  2DEE               	goto	u3441
  8350  0DED  07B4               	addwf	___flmul@grs+1,f
  8351  0DEE                     u3441:	
  8352  0DEE  082F               	movf	??___flmul+2,w
  8353  0DEF  1103               	clrz
  8354  0DF0  1803               	skipnc
  8355  0DF1  3E01               	addlw	1
  8356  0DF2  1903               	skipnz
  8357  0DF3  2DF5               	goto	u3442
  8358  0DF4  07B5               	addwf	___flmul@grs+2,f
  8359  0DF5                     u3442:	
  8360  0DF5  0830               	movf	??___flmul+3,w
  8361  0DF6  1103               	clrz
  8362  0DF7  1803               	skipnc
  8363  0DF8  3E01               	addlw	1
  8364  0DF9  1903               	skipnz
  8365  0DFA  2DFC               	goto	u3443
  8366  0DFB  07B6               	addwf	___flmul@grs+3,f
  8367  0DFC                     u3443:	
  8368  0DFC                     l2861:	
  8369  0DFC  0825               	movf	___flmul@b,w
  8370  0DFD  00AD               	movwf	??___flmul
  8371  0DFE  082D               	movf	??___flmul,w
  8372  0DFF  00F3               	movwf	__Umul8_16@multiplicand
  8373  0E00  082A               	movf	___flmul@a+1,w
  8374  0E01  160A  158A  26D8  120A  158A  	fcall	__Umul8_16
  8375  0E06  0874               	movf	?__Umul8_16+1,w
  8376  0E07  1283               	bcf	3,5	;RP0=0, select bank0
  8377  0E08  1303               	bcf	3,6	;RP1=0, select bank0
  8378  0E09  00BE               	movwf	___flmul@temp+1
  8379  0E0A  0873               	movf	?__Umul8_16,w
  8380  0E0B  00BD               	movwf	___flmul@temp
  8381  0E0C                     l2863:	
  8382  0E0C  083D               	movf	___flmul@temp,w
  8383  0E0D  00AD               	movwf	??___flmul
  8384  0E0E  083E               	movf	___flmul@temp+1,w
  8385  0E0F  00AE               	movwf	??___flmul+1
  8386  0E10  01AF               	clrf	??___flmul+2
  8387  0E11  01B0               	clrf	??___flmul+3
  8388  0E12  082D               	movf	??___flmul,w
  8389  0E13  07B3               	addwf	___flmul@grs,f
  8390  0E14  082E               	movf	??___flmul+1,w
  8391  0E15  1103               	clrz
  8392  0E16  1803               	skipnc
  8393  0E17  3E01               	addlw	1
  8394  0E18  1903               	skipnz
  8395  0E19  2E1B               	goto	u3451
  8396  0E1A  07B4               	addwf	___flmul@grs+1,f
  8397  0E1B                     u3451:	
  8398  0E1B  082F               	movf	??___flmul+2,w
  8399  0E1C  1103               	clrz
  8400  0E1D  1803               	skipnc
  8401  0E1E  3E01               	addlw	1
  8402  0E1F  1903               	skipnz
  8403  0E20  2E22               	goto	u3452
  8404  0E21  07B5               	addwf	___flmul@grs+2,f
  8405  0E22                     u3452:	
  8406  0E22  0830               	movf	??___flmul+3,w
  8407  0E23  1103               	clrz
  8408  0E24  1803               	skipnc
  8409  0E25  3E01               	addlw	1
  8410  0E26  1903               	skipnz
  8411  0E27  2E29               	goto	u3453
  8412  0E28  07B6               	addwf	___flmul@grs+3,f
  8413  0E29                     u3453:	
  8414  0E29                     l2865:	
  8415  0E29  3008               	movlw	8
  8416  0E2A  00AD               	movwf	??___flmul
  8417  0E2B                     u3465:	
  8418  0E2B  1003               	clrc
  8419  0E2C  0DB3               	rlf	___flmul@grs,f
  8420  0E2D  0DB4               	rlf	___flmul@grs+1,f
  8421  0E2E  0DB5               	rlf	___flmul@grs+2,f
  8422  0E2F  0DB6               	rlf	___flmul@grs+3,f
  8423  0E30  0BAD               	decfsz	??___flmul,f
  8424  0E31  2E2B               	goto	u3465
  8425  0E32  0825               	movf	___flmul@b,w
  8426  0E33  00AD               	movwf	??___flmul
  8427  0E34  082D               	movf	??___flmul,w
  8428  0E35  00F3               	movwf	__Umul8_16@multiplicand
  8429  0E36  0829               	movf	___flmul@a,w
  8430  0E37  160A  158A  26D8  120A  158A  	fcall	__Umul8_16
  8431  0E3C  0874               	movf	?__Umul8_16+1,w
  8432  0E3D  1283               	bcf	3,5	;RP0=0, select bank0
  8433  0E3E  1303               	bcf	3,6	;RP1=0, select bank0
  8434  0E3F  00BE               	movwf	___flmul@temp+1
  8435  0E40  0873               	movf	?__Umul8_16,w
  8436  0E41  00BD               	movwf	___flmul@temp
  8437  0E42                     l2867:	
  8438  0E42  083D               	movf	___flmul@temp,w
  8439  0E43  00AD               	movwf	??___flmul
  8440  0E44  083E               	movf	___flmul@temp+1,w
  8441  0E45  00AE               	movwf	??___flmul+1
  8442  0E46  01AF               	clrf	??___flmul+2
  8443  0E47  01B0               	clrf	??___flmul+3
  8444  0E48  082D               	movf	??___flmul,w
  8445  0E49  07B3               	addwf	___flmul@grs,f
  8446  0E4A  082E               	movf	??___flmul+1,w
  8447  0E4B  1103               	clrz
  8448  0E4C  1803               	skipnc
  8449  0E4D  3E01               	addlw	1
  8450  0E4E  1903               	skipnz
  8451  0E4F  2E51               	goto	u3471
  8452  0E50  07B4               	addwf	___flmul@grs+1,f
  8453  0E51                     u3471:	
  8454  0E51  082F               	movf	??___flmul+2,w
  8455  0E52  1103               	clrz
  8456  0E53  1803               	skipnc
  8457  0E54  3E01               	addlw	1
  8458  0E55  1903               	skipnz
  8459  0E56  2E58               	goto	u3472
  8460  0E57  07B5               	addwf	___flmul@grs+2,f
  8461  0E58                     u3472:	
  8462  0E58  0830               	movf	??___flmul+3,w
  8463  0E59  1103               	clrz
  8464  0E5A  1803               	skipnc
  8465  0E5B  3E01               	addlw	1
  8466  0E5C  1903               	skipnz
  8467  0E5D  2E5F               	goto	u3473
  8468  0E5E  07B6               	addwf	___flmul@grs+3,f
  8469  0E5F                     u3473:	
  8470  0E5F                     l2869:	
  8471  0E5F  0826               	movf	___flmul@b+1,w
  8472  0E60  00AD               	movwf	??___flmul
  8473  0E61  082D               	movf	??___flmul,w
  8474  0E62  00F3               	movwf	__Umul8_16@multiplicand
  8475  0E63  082B               	movf	___flmul@a+2,w
  8476  0E64  160A  158A  26D8  120A  158A  	fcall	__Umul8_16
  8477  0E69  0874               	movf	?__Umul8_16+1,w
  8478  0E6A  1283               	bcf	3,5	;RP0=0, select bank0
  8479  0E6B  1303               	bcf	3,6	;RP1=0, select bank0
  8480  0E6C  00BE               	movwf	___flmul@temp+1
  8481  0E6D  0873               	movf	?__Umul8_16,w
  8482  0E6E  00BD               	movwf	___flmul@temp
  8483  0E6F  083D               	movf	___flmul@temp,w
  8484  0E70  00AD               	movwf	??___flmul
  8485  0E71  083E               	movf	___flmul@temp+1,w
  8486  0E72  00AE               	movwf	??___flmul+1
  8487  0E73  01AF               	clrf	??___flmul+2
  8488  0E74  01B0               	clrf	??___flmul+3
  8489  0E75  082D               	movf	??___flmul,w
  8490  0E76  07B9               	addwf	___flmul@prod,f
  8491  0E77  082E               	movf	??___flmul+1,w
  8492  0E78  1103               	clrz
  8493  0E79  1803               	skipnc
  8494  0E7A  3E01               	addlw	1
  8495  0E7B  1903               	skipnz
  8496  0E7C  2E7E               	goto	u3481
  8497  0E7D  07BA               	addwf	___flmul@prod+1,f
  8498  0E7E                     u3481:	
  8499  0E7E  082F               	movf	??___flmul+2,w
  8500  0E7F  1103               	clrz
  8501  0E80  1803               	skipnc
  8502  0E81  3E01               	addlw	1
  8503  0E82  1903               	skipnz
  8504  0E83  2E85               	goto	u3482
  8505  0E84  07BB               	addwf	___flmul@prod+2,f
  8506  0E85                     u3482:	
  8507  0E85  0830               	movf	??___flmul+3,w
  8508  0E86  1103               	clrz
  8509  0E87  1803               	skipnc
  8510  0E88  3E01               	addlw	1
  8511  0E89  1903               	skipnz
  8512  0E8A  2E8C               	goto	u3483
  8513  0E8B  07BC               	addwf	___flmul@prod+3,f
  8514  0E8C                     u3483:	
  8515  0E8C                     l2871:	
  8516  0E8C  0827               	movf	___flmul@b+2,w
  8517  0E8D  00AD               	movwf	??___flmul
  8518  0E8E  082D               	movf	??___flmul,w
  8519  0E8F  00F3               	movwf	__Umul8_16@multiplicand
  8520  0E90  082A               	movf	___flmul@a+1,w
  8521  0E91  160A  158A  26D8  120A  158A  	fcall	__Umul8_16
  8522  0E96  0874               	movf	?__Umul8_16+1,w
  8523  0E97  1283               	bcf	3,5	;RP0=0, select bank0
  8524  0E98  1303               	bcf	3,6	;RP1=0, select bank0
  8525  0E99  00BE               	movwf	___flmul@temp+1
  8526  0E9A  0873               	movf	?__Umul8_16,w
  8527  0E9B  00BD               	movwf	___flmul@temp
  8528  0E9C                     l2873:	
  8529  0E9C  083D               	movf	___flmul@temp,w
  8530  0E9D  00AD               	movwf	??___flmul
  8531  0E9E  083E               	movf	___flmul@temp+1,w
  8532  0E9F  00AE               	movwf	??___flmul+1
  8533  0EA0  01AF               	clrf	??___flmul+2
  8534  0EA1  01B0               	clrf	??___flmul+3
  8535  0EA2  082D               	movf	??___flmul,w
  8536  0EA3  07B9               	addwf	___flmul@prod,f
  8537  0EA4  082E               	movf	??___flmul+1,w
  8538  0EA5  1103               	clrz
  8539  0EA6  1803               	skipnc
  8540  0EA7  3E01               	addlw	1
  8541  0EA8  1903               	skipnz
  8542  0EA9  2EAB               	goto	u3491
  8543  0EAA  07BA               	addwf	___flmul@prod+1,f
  8544  0EAB                     u3491:	
  8545  0EAB  082F               	movf	??___flmul+2,w
  8546  0EAC  1103               	clrz
  8547  0EAD  1803               	skipnc
  8548  0EAE  3E01               	addlw	1
  8549  0EAF  1903               	skipnz
  8550  0EB0  2EB2               	goto	u3492
  8551  0EB1  07BB               	addwf	___flmul@prod+2,f
  8552  0EB2                     u3492:	
  8553  0EB2  0830               	movf	??___flmul+3,w
  8554  0EB3  1103               	clrz
  8555  0EB4  1803               	skipnc
  8556  0EB5  3E01               	addlw	1
  8557  0EB6  1903               	skipnz
  8558  0EB7  2EB9               	goto	u3493
  8559  0EB8  07BC               	addwf	___flmul@prod+3,f
  8560  0EB9                     u3493:	
  8561  0EB9  0827               	movf	___flmul@b+2,w
  8562  0EBA  00AD               	movwf	??___flmul
  8563  0EBB  082D               	movf	??___flmul,w
  8564  0EBC  00F3               	movwf	__Umul8_16@multiplicand
  8565  0EBD  082B               	movf	___flmul@a+2,w
  8566  0EBE  160A  158A  26D8  120A  158A  	fcall	__Umul8_16
  8567  0EC3  0874               	movf	?__Umul8_16+1,w
  8568  0EC4  1283               	bcf	3,5	;RP0=0, select bank0
  8569  0EC5  1303               	bcf	3,6	;RP1=0, select bank0
  8570  0EC6  00BE               	movwf	___flmul@temp+1
  8571  0EC7  0873               	movf	?__Umul8_16,w
  8572  0EC8  00BD               	movwf	___flmul@temp
  8573  0EC9                     l2875:	
  8574  0EC9  083D               	movf	___flmul@temp,w
  8575  0ECA  00AD               	movwf	??___flmul
  8576  0ECB  083E               	movf	___flmul@temp+1,w
  8577  0ECC  00AE               	movwf	??___flmul+1
  8578  0ECD  01AF               	clrf	??___flmul+2
  8579  0ECE  01B0               	clrf	??___flmul+3
  8580  0ECF  3008               	movlw	8
  8581  0ED0                     u3505:	
  8582  0ED0  1003               	clrc
  8583  0ED1  0DAD               	rlf	??___flmul,f
  8584  0ED2  0DAE               	rlf	??___flmul+1,f
  8585  0ED3  0DAF               	rlf	??___flmul+2,f
  8586  0ED4  0DB0               	rlf	??___flmul+3,f
  8587  0ED5                     u3500:	
  8588  0ED5  3EFF               	addlw	-1
  8589  0ED6  1D03               	skipz
  8590  0ED7  2ED0               	goto	u3505
  8591  0ED8  082D               	movf	??___flmul,w
  8592  0ED9  07B9               	addwf	___flmul@prod,f
  8593  0EDA  082E               	movf	??___flmul+1,w
  8594  0EDB  1103               	clrz
  8595  0EDC  1803               	skipnc
  8596  0EDD  3E01               	addlw	1
  8597  0EDE  1903               	skipnz
  8598  0EDF  2EE1               	goto	u3511
  8599  0EE0  07BA               	addwf	___flmul@prod+1,f
  8600  0EE1                     u3511:	
  8601  0EE1  082F               	movf	??___flmul+2,w
  8602  0EE2  1103               	clrz
  8603  0EE3  1803               	skipnc
  8604  0EE4  3E01               	addlw	1
  8605  0EE5  1903               	skipnz
  8606  0EE6  2EE8               	goto	u3512
  8607  0EE7  07BB               	addwf	___flmul@prod+2,f
  8608  0EE8                     u3512:	
  8609  0EE8  0830               	movf	??___flmul+3,w
  8610  0EE9  1103               	clrz
  8611  0EEA  1803               	skipnc
  8612  0EEB  3E01               	addlw	1
  8613  0EEC  1903               	skipnz
  8614  0EED  2EEF               	goto	u3513
  8615  0EEE  07BC               	addwf	___flmul@prod+3,f
  8616  0EEF                     u3513:	
  8617  0EEF                     l2877:	
  8618  0EEF  0833               	movf	___flmul@grs,w
  8619  0EF0  00AD               	movwf	??___flmul
  8620  0EF1  0834               	movf	___flmul@grs+1,w
  8621  0EF2  00AE               	movwf	??___flmul+1
  8622  0EF3  0835               	movf	___flmul@grs+2,w
  8623  0EF4  00AF               	movwf	??___flmul+2
  8624  0EF5  0836               	movf	___flmul@grs+3,w
  8625  0EF6  00B0               	movwf	??___flmul+3
  8626  0EF7  3018               	movlw	24
  8627  0EF8                     u3525:	
  8628  0EF8  1003               	clrc
  8629  0EF9  0CB0               	rrf	??___flmul+3,f
  8630  0EFA  0CAF               	rrf	??___flmul+2,f
  8631  0EFB  0CAE               	rrf	??___flmul+1,f
  8632  0EFC  0CAD               	rrf	??___flmul,f
  8633  0EFD                     u3520:	
  8634  0EFD  3EFF               	addlw	-1
  8635  0EFE  1D03               	skipz
  8636  0EFF  2EF8               	goto	u3525
  8637  0F00  082D               	movf	??___flmul,w
  8638  0F01  07B9               	addwf	___flmul@prod,f
  8639  0F02  082E               	movf	??___flmul+1,w
  8640  0F03  1103               	clrz
  8641  0F04  1803               	skipnc
  8642  0F05  3E01               	addlw	1
  8643  0F06  1903               	skipnz
  8644  0F07  2F09               	goto	u3531
  8645  0F08  07BA               	addwf	___flmul@prod+1,f
  8646  0F09                     u3531:	
  8647  0F09  082F               	movf	??___flmul+2,w
  8648  0F0A  1103               	clrz
  8649  0F0B  1803               	skipnc
  8650  0F0C  3E01               	addlw	1
  8651  0F0D  1903               	skipnz
  8652  0F0E  2F10               	goto	u3532
  8653  0F0F  07BB               	addwf	___flmul@prod+2,f
  8654  0F10                     u3532:	
  8655  0F10  0830               	movf	??___flmul+3,w
  8656  0F11  1103               	clrz
  8657  0F12  1803               	skipnc
  8658  0F13  3E01               	addlw	1
  8659  0F14  1903               	skipnz
  8660  0F15  2F17               	goto	u3533
  8661  0F16  07BC               	addwf	___flmul@prod+3,f
  8662  0F17                     u3533:	
  8663  0F17                     l2879:	
  8664  0F17  3008               	movlw	8
  8665  0F18  00AD               	movwf	??___flmul
  8666  0F19                     u3545:	
  8667  0F19  1003               	clrc
  8668  0F1A  0DB3               	rlf	___flmul@grs,f
  8669  0F1B  0DB4               	rlf	___flmul@grs+1,f
  8670  0F1C  0DB5               	rlf	___flmul@grs+2,f
  8671  0F1D  0DB6               	rlf	___flmul@grs+3,f
  8672  0F1E  0BAD               	decfsz	??___flmul,f
  8673  0F1F  2F19               	goto	u3545
  8674  0F20                     l2881:	
  8675  0F20  0838               	movf	___flmul@bexp,w
  8676  0F21  0737               	addwf	___flmul@aexp,w
  8677  0F22  00AD               	movwf	??___flmul
  8678  0F23  01AE               	clrf	??___flmul+1
  8679  0F24  0DAE               	rlf	??___flmul+1,f
  8680  0F25  082D               	movf	??___flmul,w
  8681  0F26  3E82               	addlw	130
  8682  0F27  00BD               	movwf	___flmul@temp
  8683  0F28  082E               	movf	??___flmul+1,w
  8684  0F29  1803               	skipnc
  8685  0F2A  3E01               	addlw	1
  8686  0F2B  3EFF               	addlw	255
  8687  0F2C  00BE               	movwf	___flmul@temp+1
  8688  0F2D  2F4B               	goto	l2893
  8689  0F2E                     l2883:	
  8690  0F2E  3001               	movlw	1
  8691  0F2F  00AD               	movwf	??___flmul
  8692  0F30                     u3555:	
  8693  0F30  1003               	clrc
  8694  0F31  0DB9               	rlf	___flmul@prod,f
  8695  0F32  0DBA               	rlf	___flmul@prod+1,f
  8696  0F33  0DBB               	rlf	___flmul@prod+2,f
  8697  0F34  0DBC               	rlf	___flmul@prod+3,f
  8698  0F35  0BAD               	decfsz	??___flmul,f
  8699  0F36  2F30               	goto	u3555
  8700  0F37                     l2885:	
  8701  0F37  1FB6               	btfss	___flmul@grs+3,7
  8702  0F38  2F3A               	goto	u3561
  8703  0F39  2F3B               	goto	u3560
  8704  0F3A                     u3561:	
  8705  0F3A  2F3C               	goto	l2889
  8706  0F3B                     u3560:	
  8707  0F3B                     l2887:	
  8708  0F3B  1439               	bsf	___flmul@prod,0
  8709  0F3C                     l2889:	
  8710  0F3C  3001               	movlw	1
  8711  0F3D  00AD               	movwf	??___flmul
  8712  0F3E                     u3575:	
  8713  0F3E  1003               	clrc
  8714  0F3F  0DB3               	rlf	___flmul@grs,f
  8715  0F40  0DB4               	rlf	___flmul@grs+1,f
  8716  0F41  0DB5               	rlf	___flmul@grs+2,f
  8717  0F42  0DB6               	rlf	___flmul@grs+3,f
  8718  0F43  0BAD               	decfsz	??___flmul,f
  8719  0F44  2F3E               	goto	u3575
  8720  0F45                     l2891:	
  8721  0F45  30FF               	movlw	255
  8722  0F46  07BD               	addwf	___flmul@temp,f
  8723  0F47  1803               	skipnc
  8724  0F48  0ABE               	incf	___flmul@temp+1,f
  8725  0F49  30FF               	movlw	255
  8726  0F4A  07BE               	addwf	___flmul@temp+1,f
  8727  0F4B                     l2893:	
  8728  0F4B  1FBB               	btfss	___flmul@prod+2,7
  8729  0F4C  2F4E               	goto	u3581
  8730  0F4D  2F4F               	goto	u3580
  8731  0F4E                     u3581:	
  8732  0F4E  2F2E               	goto	l2883
  8733  0F4F                     u3580:	
  8734  0F4F                     l2895:	
  8735  0F4F  01B7               	clrf	___flmul@aexp
  8736  0F50                     l2897:	
  8737  0F50  1FB6               	btfss	___flmul@grs+3,7
  8738  0F51  2F53               	goto	u3591
  8739  0F52  2F54               	goto	u3590
  8740  0F53                     u3591:	
  8741  0F53  2F70               	goto	l2905
  8742  0F54                     u3590:	
  8743  0F54                     l2899:	
  8744  0F54  30FF               	movlw	255
  8745  0F55  0533               	andwf	___flmul@grs,w
  8746  0F56  00AD               	movwf	??___flmul
  8747  0F57  30FF               	movlw	255
  8748  0F58  0534               	andwf	___flmul@grs+1,w
  8749  0F59  00AE               	movwf	??___flmul+1
  8750  0F5A  30FF               	movlw	255
  8751  0F5B  0535               	andwf	___flmul@grs+2,w
  8752  0F5C  00AF               	movwf	??___flmul+2
  8753  0F5D  307F               	movlw	127
  8754  0F5E  0536               	andwf	___flmul@grs+3,w
  8755  0F5F  00B0               	movwf	??___flmul+3
  8756  0F60  0830               	movf	??___flmul+3,w
  8757  0F61  042F               	iorwf	??___flmul+2,w
  8758  0F62  042E               	iorwf	??___flmul+1,w
  8759  0F63  042D               	iorwf	??___flmul,w
  8760  0F64  1903               	skipnz
  8761  0F65  2F67               	goto	u3601
  8762  0F66  2F68               	goto	u3600
  8763  0F67                     u3601:	
  8764  0F67  2F6B               	goto	l826
  8765  0F68                     u3600:	
  8766  0F68                     l2901:	
  8767  0F68  01B7               	clrf	___flmul@aexp
  8768  0F69  0AB7               	incf	___flmul@aexp,f
  8769  0F6A  2F70               	goto	l2905
  8770  0F6B                     l826:	
  8771  0F6B  1C39               	btfss	___flmul@prod,0
  8772  0F6C  2F6E               	goto	u3611
  8773  0F6D  2F6F               	goto	u3610
  8774  0F6E                     u3611:	
  8775  0F6E  2F70               	goto	l2905
  8776  0F6F                     u3610:	
  8777  0F6F  2F68               	goto	l2901
  8778  0F70                     l2905:	
  8779  0F70  0837               	movf	___flmul@aexp,w
  8780  0F71  1903               	btfsc	3,2
  8781  0F72  2F74               	goto	u3621
  8782  0F73  2F75               	goto	u3620
  8783  0F74                     u3621:	
  8784  0F74  2FA6               	goto	l2915
  8785  0F75                     u3620:	
  8786  0F75                     l2907:	
  8787  0F75  3001               	movlw	1
  8788  0F76  07B9               	addwf	___flmul@prod,f
  8789  0F77  3000               	movlw	0
  8790  0F78  1803               	skipnc
  8791  0F79  3001               	movlw	1
  8792  0F7A  07BA               	addwf	___flmul@prod+1,f
  8793  0F7B  3000               	movlw	0
  8794  0F7C  1803               	skipnc
  8795  0F7D  3001               	movlw	1
  8796  0F7E  07BB               	addwf	___flmul@prod+2,f
  8797  0F7F  3000               	movlw	0
  8798  0F80  1803               	skipnc
  8799  0F81  3001               	movlw	1
  8800  0F82  07BC               	addwf	___flmul@prod+3,f
  8801  0F83                     l2909:	
  8802  0F83  1C3C               	btfss	___flmul@prod+3,0
  8803  0F84  2F86               	goto	u3631
  8804  0F85  2F87               	goto	u3630
  8805  0F86                     u3631:	
  8806  0F86  2FA6               	goto	l2915
  8807  0F87                     u3630:	
  8808  0F87                     l2911:	
  8809  0F87  0839               	movf	___flmul@prod,w
  8810  0F88  00AD               	movwf	??___flmul
  8811  0F89  083A               	movf	___flmul@prod+1,w
  8812  0F8A  00AE               	movwf	??___flmul+1
  8813  0F8B  083B               	movf	___flmul@prod+2,w
  8814  0F8C  00AF               	movwf	??___flmul+2
  8815  0F8D  083C               	movf	___flmul@prod+3,w
  8816  0F8E  00B0               	movwf	??___flmul+3
  8817  0F8F  3001               	movlw	1
  8818  0F90  00B1               	movwf	??___flmul+4
  8819  0F91                     u3645:	
  8820  0F91  0D30               	rlf	??___flmul+3,w
  8821  0F92  0CB0               	rrf	??___flmul+3,f
  8822  0F93  0CAF               	rrf	??___flmul+2,f
  8823  0F94  0CAE               	rrf	??___flmul+1,f
  8824  0F95  0CAD               	rrf	??___flmul,f
  8825  0F96                     u3640:	
  8826  0F96  0BB1               	decfsz	??___flmul+4,f
  8827  0F97  2F91               	goto	u3645
  8828  0F98  0830               	movf	??___flmul+3,w
  8829  0F99  00BC               	movwf	___flmul@prod+3
  8830  0F9A  082F               	movf	??___flmul+2,w
  8831  0F9B  00BB               	movwf	___flmul@prod+2
  8832  0F9C  082E               	movf	??___flmul+1,w
  8833  0F9D  00BA               	movwf	___flmul@prod+1
  8834  0F9E  082D               	movf	??___flmul,w
  8835  0F9F  00B9               	movwf	___flmul@prod
  8836  0FA0                     l2913:	
  8837  0FA0  3001               	movlw	1
  8838  0FA1  07BD               	addwf	___flmul@temp,f
  8839  0FA2  1803               	skipnc
  8840  0FA3  0ABE               	incf	___flmul@temp+1,f
  8841  0FA4  3000               	movlw	0
  8842  0FA5  07BE               	addwf	___flmul@temp+1,f
  8843  0FA6                     l2915:	
  8844  0FA6  083E               	movf	___flmul@temp+1,w
  8845  0FA7  3A80               	xorlw	128
  8846  0FA8  00FF               	movwf	btemp+1
  8847  0FA9  3080               	movlw	128
  8848  0FAA  027F               	subwf	btemp+1,w
  8849  0FAB  1D03               	skipz
  8850  0FAC  2FAF               	goto	u3655
  8851  0FAD  30FF               	movlw	255
  8852  0FAE  023D               	subwf	___flmul@temp,w
  8853  0FAF                     u3655:	
  8854  0FAF  1C03               	skipc
  8855  0FB0  2FB2               	goto	u3651
  8856  0FB1  2FB3               	goto	u3650
  8857  0FB2                     u3651:	
  8858  0FB2  2FBE               	goto	l2919
  8859  0FB3                     u3650:	
  8860  0FB3                     l2917:	
  8861  0FB3  307F               	movlw	127
  8862  0FB4  1283               	bcf	3,5	;RP0=0, select bank0
  8863  0FB5  1303               	bcf	3,6	;RP1=0, select bank0
  8864  0FB6  00BC               	movwf	___flmul@prod+3
  8865  0FB7  3080               	movlw	128
  8866  0FB8  00BB               	movwf	___flmul@prod+2
  8867  0FB9  3000               	movlw	0
  8868  0FBA  00BA               	movwf	___flmul@prod+1
  8869  0FBB  3000               	movlw	0
  8870  0FBC  00B9               	movwf	___flmul@prod
  8871  0FBD  2FF3               	goto	l832
  8872  0FBE                     l2919:	
  8873  0FBE  1283               	bcf	3,5	;RP0=0, select bank0
  8874  0FBF  1303               	bcf	3,6	;RP1=0, select bank0
  8875  0FC0  083E               	movf	___flmul@temp+1,w
  8876  0FC1  3A80               	xorlw	128
  8877  0FC2  00FF               	movwf	btemp+1
  8878  0FC3  3080               	movlw	128
  8879  0FC4  027F               	subwf	btemp+1,w
  8880  0FC5  1D03               	skipz
  8881  0FC6  2FC9               	goto	u3665
  8882  0FC7  3001               	movlw	1
  8883  0FC8  023D               	subwf	___flmul@temp,w
  8884  0FC9                     u3665:	
  8885  0FC9  1803               	skipnc
  8886  0FCA  2FCC               	goto	u3661
  8887  0FCB  2FCD               	goto	u3660
  8888  0FCC                     u3661:	
  8889  0FCC  2FD9               	goto	l2925
  8890  0FCD                     u3660:	
  8891  0FCD                     l2921:	
  8892  0FCD  3000               	movlw	0
  8893  0FCE  1283               	bcf	3,5	;RP0=0, select bank0
  8894  0FCF  1303               	bcf	3,6	;RP1=0, select bank0
  8895  0FD0  00BC               	movwf	___flmul@prod+3
  8896  0FD1  3000               	movlw	0
  8897  0FD2  00BB               	movwf	___flmul@prod+2
  8898  0FD3  3000               	movlw	0
  8899  0FD4  00BA               	movwf	___flmul@prod+1
  8900  0FD5  3000               	movlw	0
  8901  0FD6  00B9               	movwf	___flmul@prod
  8902  0FD7                     l2923:	
  8903  0FD7  01B2               	clrf	___flmul@sign
  8904  0FD8  2FF3               	goto	l832
  8905  0FD9                     l2925:	
  8906  0FD9  1283               	bcf	3,5	;RP0=0, select bank0
  8907  0FDA  1303               	bcf	3,6	;RP1=0, select bank0
  8908  0FDB  083D               	movf	___flmul@temp,w
  8909  0FDC  00AD               	movwf	??___flmul
  8910  0FDD  082D               	movf	??___flmul,w
  8911  0FDE  00B8               	movwf	___flmul@bexp
  8912  0FDF  30FF               	movlw	255
  8913  0FE0  05B9               	andwf	___flmul@prod,f
  8914  0FE1  30FF               	movlw	255
  8915  0FE2  05BA               	andwf	___flmul@prod+1,f
  8916  0FE3  307F               	movlw	127
  8917  0FE4  05BB               	andwf	___flmul@prod+2,f
  8918  0FE5  3000               	movlw	0
  8919  0FE6  05BC               	andwf	___flmul@prod+3,f
  8920  0FE7                     l2927:	
  8921  0FE7  1C38               	btfss	___flmul@bexp,0
  8922  0FE8  2FEA               	goto	u3671
  8923  0FE9  2FEB               	goto	u3670
  8924  0FEA                     u3671:	
  8925  0FEA  2FEC               	goto	l2931
  8926  0FEB                     u3670:	
  8927  0FEB                     l2929:	
  8928  0FEB  17BB               	bsf	___flmul@prod+2,7
  8929  0FEC                     l2931:	
  8930  0FEC  0838               	movf	___flmul@bexp,w
  8931  0FED  00AD               	movwf	??___flmul
  8932  0FEE  1003               	clrc
  8933  0FEF  0C2D               	rrf	??___flmul,w
  8934  0FF0  00AE               	movwf	??___flmul+1
  8935  0FF1  082E               	movf	??___flmul+1,w
  8936  0FF2  00BC               	movwf	___flmul@prod+3
  8937  0FF3                     l832:	
  8938  0FF3  0832               	movf	___flmul@sign,w
  8939  0FF4  00AD               	movwf	??___flmul
  8940  0FF5  082D               	movf	??___flmul,w
  8941  0FF6  04BC               	iorwf	___flmul@prod+3,f
  8942  0FF7                     l2933:	
  8943  0FF7  083C               	movf	___flmul@prod+3,w
  8944  0FF8  00A8               	movwf	?___flmul+3
  8945  0FF9  083B               	movf	___flmul@prod+2,w
  8946  0FFA  00A7               	movwf	?___flmul+2
  8947  0FFB  083A               	movf	___flmul@prod+1,w
  8948  0FFC  00A6               	movwf	?___flmul+1
  8949  0FFD  0839               	movf	___flmul@prod,w
  8950  0FFE  00A5               	movwf	?___flmul
  8951  0FFF                     l820:	
  8952  0FFF  0008               	return
  8953  1000                     __end_of___flmul:	
  8954                           
  8955                           	psect	text20
  8956  1ED8                     __ptext20:	
  8957 ;; *************** function __Umul8_16 *****************
  8958 ;; Defined at:
  8959 ;;		line 4 in file "C:\Program Files (x86)\Microchip\xc8\v2.10\pic\sources\c90\common\Umul8_16.c"
  8960 ;; Parameters:    Size  Location     Type
  8961 ;;  multiplier      1    wreg     unsigned char 
  8962 ;;  multiplicand    1    3[COMMON] unsigned char 
  8963 ;; Auto vars:     Size  Location     Type
  8964 ;;  multiplier      1    4[BANK0 ] unsigned char 
  8965 ;;  word_mpld       2    2[BANK0 ] unsigned int 
  8966 ;;  product         2    0[BANK0 ] unsigned int 
  8967 ;; Return value:  Size  Location     Type
  8968 ;;                  2    3[COMMON] unsigned int 
  8969 ;; Registers used:
  8970 ;;		wreg, status,2, status,0
  8971 ;; Tracked objects:
  8972 ;;		On entry : 0/0
  8973 ;;		On exit  : 0/0
  8974 ;;		Unchanged: 0/0
  8975 ;; Data sizes:     COMMON   BANK0   BANK1   BANK3   BANK2
  8976 ;;      Params:         2       0       0       0       0
  8977 ;;      Locals:         0       5       0       0       0
  8978 ;;      Temps:          2       0       0       0       0
  8979 ;;      Totals:         4       5       0       0       0
  8980 ;;Total ram usage:        9 bytes
  8981 ;; Hardware stack levels used:    1
  8982 ;; Hardware stack levels required when called:    1
  8983 ;; This function calls:
  8984 ;;		Nothing
  8985 ;; This function is called by:
  8986 ;;		___flmul
  8987 ;; This function uses a non-reentrant model
  8988 ;;
  8989                           
  8990                           
  8991                           ;psect for function __Umul8_16
  8992  1ED8                     __Umul8_16:	
  8993                           
  8994                           ;incstack = 0
  8995                           ; Regs used in __Umul8_16: [wreg+status,2+status,0]
  8996                           ;__Umul8_16@multiplier stored from wreg
  8997  1ED8  1283               	bcf	3,5	;RP0=0, select bank0
  8998  1ED9  1303               	bcf	3,6	;RP1=0, select bank0
  8999  1EDA  00A4               	movwf	__Umul8_16@multiplier
  9000  1EDB                     l2529:	
  9001  1EDB  01A0               	clrf	__Umul8_16@product
  9002  1EDC  01A1               	clrf	__Umul8_16@product+1
  9003  1EDD                     l2531:	
  9004  1EDD  0873               	movf	__Umul8_16@multiplicand,w
  9005  1EDE  00F5               	movwf	??__Umul8_16
  9006  1EDF  01F6               	clrf	??__Umul8_16+1
  9007  1EE0  0875               	movf	??__Umul8_16,w
  9008  1EE1  00A2               	movwf	__Umul8_16@word_mpld
  9009  1EE2  0876               	movf	??__Umul8_16+1,w
  9010  1EE3  00A3               	movwf	__Umul8_16@word_mpld+1
  9011  1EE4                     l2533:	
  9012  1EE4  1C24               	btfss	__Umul8_16@multiplier,0
  9013  1EE5  2EE7               	goto	u2781
  9014  1EE6  2EE8               	goto	u2780
  9015  1EE7                     u2781:	
  9016  1EE7  2EEE               	goto	l891
  9017  1EE8                     u2780:	
  9018  1EE8                     l2535:	
  9019  1EE8  0822               	movf	__Umul8_16@word_mpld,w
  9020  1EE9  07A0               	addwf	__Umul8_16@product,f
  9021  1EEA  1803               	skipnc
  9022  1EEB  0AA1               	incf	__Umul8_16@product+1,f
  9023  1EEC  0823               	movf	__Umul8_16@word_mpld+1,w
  9024  1EED  07A1               	addwf	__Umul8_16@product+1,f
  9025  1EEE                     l891:	
  9026  1EEE  3001               	movlw	1
  9027  1EEF                     u2795:	
  9028  1EEF  1003               	clrc
  9029  1EF0  0DA2               	rlf	__Umul8_16@word_mpld,f
  9030  1EF1  0DA3               	rlf	__Umul8_16@word_mpld+1,f
  9031  1EF2  3EFF               	addlw	-1
  9032  1EF3  1D03               	skipz
  9033  1EF4  2EEF               	goto	u2795
  9034  1EF5  1003               	clrc
  9035  1EF6  0CA4               	rrf	__Umul8_16@multiplier,f
  9036  1EF7                     l2537:	
  9037  1EF7  0824               	movf	__Umul8_16@multiplier,w
  9038  1EF8  1D03               	btfss	3,2
  9039  1EF9  2EFB               	goto	u2801
  9040  1EFA  2EFC               	goto	u2800
  9041  1EFB                     u2801:	
  9042  1EFB  2EE4               	goto	l2533
  9043  1EFC                     u2800:	
  9044  1EFC                     l2539:	
  9045  1EFC  0821               	movf	__Umul8_16@product+1,w
  9046  1EFD  00F4               	movwf	?__Umul8_16+1
  9047  1EFE  0820               	movf	__Umul8_16@product,w
  9048  1EFF  00F3               	movwf	?__Umul8_16
  9049  1F00                     l893:	
  9050  1F00  0008               	return
  9051  1F01                     __end_of__Umul8_16:	
  9052                           
  9053                           	psect	text21
  9054  110D                     __ptext21:	
  9055 ;; *************** function _Lcd_Init *****************
  9056 ;; Defined at:
  9057 ;;		line 62 in file "./lcd.h"
  9058 ;; Parameters:    Size  Location     Type
  9059 ;;		None
  9060 ;; Auto vars:     Size  Location     Type
  9061 ;;		None
  9062 ;; Return value:  Size  Location     Type
  9063 ;;                  1    wreg      void 
  9064 ;; Registers used:
  9065 ;;		wreg, status,2, status,0, pclath, cstack
  9066 ;; Tracked objects:
  9067 ;;		On entry : 0/0
  9068 ;;		On exit  : 0/0
  9069 ;;		Unchanged: 0/0
  9070 ;; Data sizes:     COMMON   BANK0   BANK1   BANK3   BANK2
  9071 ;;      Params:         0       0       0       0       0
  9072 ;;      Locals:         0       0       0       0       0
  9073 ;;      Temps:          2       0       0       0       0
  9074 ;;      Totals:         2       0       0       0       0
  9075 ;;Total ram usage:        2 bytes
  9076 ;; Hardware stack levels used:    1
  9077 ;; Hardware stack levels required when called:    3
  9078 ;; This function calls:
  9079 ;;		_Lcd_Cmd
  9080 ;;		_Lcd_Port
  9081 ;; This function is called by:
  9082 ;;		_main
  9083 ;; This function uses a non-reentrant model
  9084 ;;
  9085                           
  9086                           
  9087                           ;psect for function _Lcd_Init
  9088  110D                     _Lcd_Init:	
  9089  110D                     l3251:	
  9090                           ;incstack = 0
  9091                           ; Regs used in _Lcd_Init: [wreg+status,2+status,0+pclath+cstack]
  9092                           
  9093                           
  9094                           ;./lcd.h: 64:   Lcd_Port(0x00);
  9095  110D  3000               	movlw	0
  9096  110E  160A  158A  2602  160A  118A  	fcall	_Lcd_Port
  9097  1113                     l3253:	
  9098                           
  9099                           ;./lcd.h: 65:    _delay((unsigned long)((20)*(8000000/4000.0)));
  9100  1113  3034               	movlw	52
  9101  1114  00F8               	movwf	??_Lcd_Init+1
  9102  1115  30F1               	movlw	241
  9103  1116  00F7               	movwf	??_Lcd_Init
  9104  1117                     u7047:	
  9105  1117  0BF7               	decfsz	??_Lcd_Init,f
  9106  1118  2917               	goto	u7047
  9107  1119  0BF8               	decfsz	??_Lcd_Init+1,f
  9108  111A  2917               	goto	u7047
  9109  111B  291C               	nop2
  9110  111C                     l3255:	
  9111                           
  9112                           ;./lcd.h: 66:   Lcd_Cmd(0x03);
  9113  111C  3003               	movlw	3
  9114  111D  160A  158A  25E8  160A  118A  	fcall	_Lcd_Cmd
  9115                           
  9116                           ;./lcd.h: 67:  _delay((unsigned long)((5)*(8000000/4000.0)));
  9117  1122  300D               	movlw	13
  9118  1123  00F8               	movwf	??_Lcd_Init+1
  9119  1124  30FB               	movlw	251
  9120  1125  00F7               	movwf	??_Lcd_Init
  9121  1126                     u7057:	
  9122  1126  0BF7               	decfsz	??_Lcd_Init,f
  9123  1127  2926               	goto	u7057
  9124  1128  0BF8               	decfsz	??_Lcd_Init+1,f
  9125  1129  2926               	goto	u7057
  9126  112A  292B               	nop2
  9127  112B                     l3257:	
  9128                           
  9129                           ;./lcd.h: 68:   Lcd_Cmd(0x03);
  9130  112B  3003               	movlw	3
  9131  112C  160A  158A  25E8  160A  118A  	fcall	_Lcd_Cmd
  9132  1131                     l3259:	
  9133                           
  9134                           ;./lcd.h: 69:  _delay((unsigned long)((11)*(8000000/4000.0)));
  9135  1131  301D               	movlw	29
  9136  1132  00F8               	movwf	??_Lcd_Init+1
  9137  1133  3091               	movlw	145
  9138  1134  00F7               	movwf	??_Lcd_Init
  9139  1135                     u7067:	
  9140  1135  0BF7               	decfsz	??_Lcd_Init,f
  9141  1136  2935               	goto	u7067
  9142  1137  0BF8               	decfsz	??_Lcd_Init+1,f
  9143  1138  2935               	goto	u7067
  9144                           
  9145                           ;./lcd.h: 70:   Lcd_Cmd(0x03);
  9146  1139  3003               	movlw	3
  9147  113A  160A  158A  25E8  160A  118A  	fcall	_Lcd_Cmd
  9148                           
  9149                           ;./lcd.h: 72:   Lcd_Cmd(0x02);
  9150  113F  3002               	movlw	2
  9151  1140  160A  158A  25E8  160A  118A  	fcall	_Lcd_Cmd
  9152                           
  9153                           ;./lcd.h: 73:   Lcd_Cmd(0x02);
  9154  1145  3002               	movlw	2
  9155  1146  160A  158A  25E8  160A  118A  	fcall	_Lcd_Cmd
  9156                           
  9157                           ;./lcd.h: 74:   Lcd_Cmd(0x08);
  9158  114B  3008               	movlw	8
  9159  114C  160A  158A  25E8  160A  118A  	fcall	_Lcd_Cmd
  9160                           
  9161                           ;./lcd.h: 75:   Lcd_Cmd(0x00);
  9162  1151  3000               	movlw	0
  9163  1152  160A  158A  25E8  160A  118A  	fcall	_Lcd_Cmd
  9164                           
  9165                           ;./lcd.h: 76:   Lcd_Cmd(0x0C);
  9166  1157  300C               	movlw	12
  9167  1158  160A  158A  25E8  160A  118A  	fcall	_Lcd_Cmd
  9168                           
  9169                           ;./lcd.h: 77:   Lcd_Cmd(0x00);
  9170  115D  3000               	movlw	0
  9171  115E  160A  158A  25E8  160A  118A  	fcall	_Lcd_Cmd
  9172                           
  9173                           ;./lcd.h: 78:   Lcd_Cmd(0x06);
  9174  1163  3006               	movlw	6
  9175  1164  160A  158A  25E8  160A  118A  	fcall	_Lcd_Cmd
  9176  1169                     l134:	
  9177  1169  0008               	return
  9178  116A                     __end_of_Lcd_Init:	
  9179                           
  9180                           	psect	text22
  9181  1E24                     __ptext22:	
  9182 ;; *************** function _Desactiva *****************
  9183 ;; Defined at:
  9184 ;;		line 450 in file "Codigo_TT2_01.c"
  9185 ;; Parameters:    Size  Location     Type
  9186 ;;  motor           2    3[COMMON] int 
  9187 ;; Auto vars:     Size  Location     Type
  9188 ;;		None
  9189 ;; Return value:  Size  Location     Type
  9190 ;;                  1    wreg      void 
  9191 ;; Registers used:
  9192 ;;		wreg, status,2, status,0
  9193 ;; Tracked objects:
  9194 ;;		On entry : 0/0
  9195 ;;		On exit  : 0/0
  9196 ;;		Unchanged: 0/0
  9197 ;; Data sizes:     COMMON   BANK0   BANK1   BANK3   BANK2
  9198 ;;      Params:         2       0       0       0       0
  9199 ;;      Locals:         0       0       0       0       0
  9200 ;;      Temps:          1       0       0       0       0
  9201 ;;      Totals:         3       0       0       0       0
  9202 ;;Total ram usage:        3 bytes
  9203 ;; Hardware stack levels used:    1
  9204 ;; Hardware stack levels required when called:    1
  9205 ;; This function calls:
  9206 ;;		Nothing
  9207 ;; This function is called by:
  9208 ;;		_main
  9209 ;; This function uses a non-reentrant model
  9210 ;;
  9211                           
  9212                           
  9213                           ;psect for function _Desactiva
  9214  1E24                     _Desactiva:	
  9215  1E24                     l3293:	
  9216                           ;incstack = 0
  9217                           ; Regs used in _Desactiva: [wreg+status,2+status,0]
  9218                           
  9219                           
  9220                           ;Codigo_TT2_01.c: 451:     if(motor == 1) PORTA &= 0x0F;
  9221  1E24  0373               	decf	Desactiva@motor,w
  9222  1E25  0474               	iorwf	Desactiva@motor+1,w
  9223  1E26  1D03               	btfss	3,2
  9224  1E27  2E29               	goto	u4361
  9225  1E28  2E2A               	goto	u4360
  9226  1E29                     u4361:	
  9227  1E29  2E31               	goto	l3297
  9228  1E2A                     u4360:	
  9229  1E2A                     l3295:	
  9230  1E2A  300F               	movlw	15
  9231  1E2B  00F5               	movwf	??_Desactiva
  9232  1E2C  0875               	movf	??_Desactiva,w
  9233  1E2D  1283               	bcf	3,5	;RP0=0, select bank0
  9234  1E2E  1303               	bcf	3,6	;RP1=0, select bank0
  9235  1E2F  0585               	andwf	5,f	;volatile
  9236  1E30  2E45               	goto	l326
  9237  1E31                     l3297:	
  9238  1E31  3002               	movlw	2
  9239  1E32  0673               	xorwf	Desactiva@motor,w
  9240  1E33  0474               	iorwf	Desactiva@motor+1,w
  9241  1E34  1D03               	btfss	3,2
  9242  1E35  2E37               	goto	u4371
  9243  1E36  2E38               	goto	u4370
  9244  1E37                     u4371:	
  9245  1E37  2E3F               	goto	l3301
  9246  1E38                     u4370:	
  9247  1E38                     l3299:	
  9248  1E38  30F0               	movlw	240
  9249  1E39  00F5               	movwf	??_Desactiva
  9250  1E3A  0875               	movf	??_Desactiva,w
  9251  1E3B  1283               	bcf	3,5	;RP0=0, select bank0
  9252  1E3C  1303               	bcf	3,6	;RP1=0, select bank0
  9253  1E3D  0586               	andwf	6,f	;volatile
  9254  1E3E  2E45               	goto	l326
  9255  1E3F                     l3301:	
  9256  1E3F  300F               	movlw	15
  9257  1E40  00F5               	movwf	??_Desactiva
  9258  1E41  0875               	movf	??_Desactiva,w
  9259  1E42  1283               	bcf	3,5	;RP0=0, select bank0
  9260  1E43  1303               	bcf	3,6	;RP1=0, select bank0
  9261  1E44  0587               	andwf	7,f	;volatile
  9262  1E45                     l326:	
  9263  1E45  0008               	return
  9264  1E46                     __end_of_Desactiva:	
  9265                           
  9266                           	psect	text23
  9267  1341                     __ptext23:	
  9268 ;; *************** function _CreditosInsuf *****************
  9269 ;; Defined at:
  9270 ;;		line 476 in file "Codigo_TT2_01.c"
  9271 ;; Parameters:    Size  Location     Type
  9272 ;;		None
  9273 ;; Auto vars:     Size  Location     Type
  9274 ;;		None
  9275 ;; Return value:  Size  Location     Type
  9276 ;;                  1    wreg      void 
  9277 ;; Registers used:
  9278 ;;		wreg, fsr0l, fsr0h, status,2, status,0, btemp+1, pclath, cstack
  9279 ;; Tracked objects:
  9280 ;;		On entry : 0/0
  9281 ;;		On exit  : 0/0
  9282 ;;		Unchanged: 0/0
  9283 ;; Data sizes:     COMMON   BANK0   BANK1   BANK3   BANK2
  9284 ;;      Params:         0       0       0       0       0
  9285 ;;      Locals:         0       0       0       0       0
  9286 ;;      Temps:          0       3       0       0       0
  9287 ;;      Totals:         0       3       0       0       0
  9288 ;;Total ram usage:        3 bytes
  9289 ;; Hardware stack levels used:    1
  9290 ;; Hardware stack levels required when called:    4
  9291 ;; This function calls:
  9292 ;;		_Lcd_Clear
  9293 ;;		_Lcd_Set_Cursor
  9294 ;;		_Lcd_Write_String
  9295 ;; This function is called by:
  9296 ;;		_main
  9297 ;; This function uses a non-reentrant model
  9298 ;;
  9299                           
  9300                           
  9301                           ;psect for function _CreditosInsuf
  9302  1341                     _CreditosInsuf:	
  9303  1341                     l4447:	
  9304                           ;incstack = 0
  9305                           ; Regs used in _CreditosInsuf: [wreg-fsr0h+status,2+status,0+btemp+1+pclath+cstack]
  9306                           
  9307                           
  9308                           ;Codigo_TT2_01.c: 477:     alerta = 1;
  9309  1341  3001               	movlw	1
  9310  1342  1683               	bsf	3,5	;RP0=1, select bank1
  9311  1343  1303               	bcf	3,6	;RP1=0, select bank1
  9312  1344  00A4               	movwf	_alerta^(0+128)
  9313  1345  3000               	movlw	0
  9314  1346  00A5               	movwf	(_alerta^(0+128)+1)
  9315  1347                     l4449:	
  9316                           
  9317                           ;Codigo_TT2_01.c: 478:     Lcd_Clear();
  9318  1347  160A  118A  20A8  160A  118A  	fcall	_Lcd_Clear
  9319  134C                     l4451:	
  9320                           
  9321                           ;Codigo_TT2_01.c: 479:     Lcd_Set_Cursor(1,4);
  9322  134C  3004               	movlw	4
  9323  134D  1283               	bcf	3,5	;RP0=0, select bank0
  9324  134E  1303               	bcf	3,6	;RP1=0, select bank0
  9325  134F  00A7               	movwf	??_CreditosInsuf
  9326  1350  0827               	movf	??_CreditosInsuf,w
  9327  1351  00F7               	movwf	Lcd_Set_Cursor@b
  9328  1352  3001               	movlw	1
  9329  1353  160A  118A  20B5  160A  118A  	fcall	_Lcd_Set_Cursor
  9330  1358                     l4453:	
  9331                           
  9332                           ;Codigo_TT2_01.c: 480:     Lcd_Write_String("Creditos");
  9333  1358  3078               	movlw	(low ((STR_7-__stringbase)| (0+32768)))& (0+255)
  9334  1359  1283               	bcf	3,5	;RP0=0, select bank0
  9335  135A  1303               	bcf	3,6	;RP1=0, select bank0
  9336  135B  00A0               	movwf	Lcd_Write_String@a
  9337  135C  3080               	movlw	128
  9338  135D  00A1               	movwf	Lcd_Write_String@a+1
  9339  135E  160A  158A  2774  160A  118A  	fcall	_Lcd_Write_String
  9340  1363                     l4455:	
  9341                           
  9342                           ;Codigo_TT2_01.c: 481:     Lcd_Set_Cursor(2,1);
  9343  1363  01F7               	clrf	Lcd_Set_Cursor@b
  9344  1364  0AF7               	incf	Lcd_Set_Cursor@b,f
  9345  1365  3002               	movlw	2
  9346  1366  160A  118A  20B5  160A  118A  	fcall	_Lcd_Set_Cursor
  9347  136B                     l4457:	
  9348                           
  9349                           ;Codigo_TT2_01.c: 482:     Lcd_Write_String("insuficientes");
  9350  136B  3027               	movlw	(low ((STR_8-__stringbase)| (0+32768)))& (0+255)
  9351  136C  1283               	bcf	3,5	;RP0=0, select bank0
  9352  136D  1303               	bcf	3,6	;RP1=0, select bank0
  9353  136E  00A0               	movwf	Lcd_Write_String@a
  9354  136F  3080               	movlw	128
  9355  1370  00A1               	movwf	Lcd_Write_String@a+1
  9356  1371  160A  158A  2774  160A  118A  	fcall	_Lcd_Write_String
  9357  1376                     l4459:	
  9358                           
  9359                           ;Codigo_TT2_01.c: 483:     _delay((unsigned long)((2000)*(8000000/4000.0)));
  9360  1376  3015               	movlw	21
  9361  1377  1283               	bcf	3,5	;RP0=0, select bank0
  9362  1378  1303               	bcf	3,6	;RP1=0, select bank0
  9363  1379  00A9               	movwf	??_CreditosInsuf+2
  9364  137A  304B               	movlw	75
  9365  137B  00A8               	movwf	??_CreditosInsuf+1
  9366  137C  30BD               	movlw	189
  9367  137D  00A7               	movwf	??_CreditosInsuf
  9368  137E                     u7077:	
  9369  137E  0BA7               	decfsz	??_CreditosInsuf,f
  9370  137F  2B7E               	goto	u7077
  9371  1380  0BA8               	decfsz	??_CreditosInsuf+1,f
  9372  1381  2B7E               	goto	u7077
  9373  1382  0BA9               	decfsz	??_CreditosInsuf+2,f
  9374  1383  2B7E               	goto	u7077
  9375  1384  2B85               	nop2
  9376  1385                     l4461:	
  9377                           
  9378                           ;Codigo_TT2_01.c: 484:     alerta = 0;
  9379  1385  1683               	bsf	3,5	;RP0=1, select bank1
  9380  1386  1303               	bcf	3,6	;RP1=0, select bank1
  9381  1387  01A4               	clrf	_alerta^(0+128)
  9382  1388  01A5               	clrf	(_alerta+1)^(0+128)
  9383  1389                     l4463:	
  9384                           
  9385                           ;Codigo_TT2_01.c: 485:     RC0 = 0;
  9386  1389  1283               	bcf	3,5	;RP0=0, select bank0
  9387  138A  1303               	bcf	3,6	;RP1=0, select bank0
  9388  138B  1007               	bcf	7,0	;volatile
  9389  138C                     l4465:	
  9390                           
  9391                           ;Codigo_TT2_01.c: 486:     Lcd_Clear();
  9392  138C  160A  118A  20A8  160A  118A  	fcall	_Lcd_Clear
  9393  1391                     l4467:	
  9394                           
  9395                           ;Codigo_TT2_01.c: 487:     Lcd_Set_Cursor(1,2);
  9396  1391  3002               	movlw	2
  9397  1392  1283               	bcf	3,5	;RP0=0, select bank0
  9398  1393  1303               	bcf	3,6	;RP1=0, select bank0
  9399  1394  00A7               	movwf	??_CreditosInsuf
  9400  1395  0827               	movf	??_CreditosInsuf,w
  9401  1396  00F7               	movwf	Lcd_Set_Cursor@b
  9402  1397  3001               	movlw	1
  9403  1398  160A  118A  20B5  160A  118A  	fcall	_Lcd_Set_Cursor
  9404  139D                     l4469:	
  9405                           
  9406                           ;Codigo_TT2_01.c: 488:     Lcd_Write_String("Ingrese mas");
  9407  139D  3041               	movlw	(low ((STR_9-__stringbase)| (0+32768)))& (0+255)
  9408  139E  1283               	bcf	3,5	;RP0=0, select bank0
  9409  139F  1303               	bcf	3,6	;RP1=0, select bank0
  9410  13A0  00A0               	movwf	Lcd_Write_String@a
  9411  13A1  3080               	movlw	128
  9412  13A2  00A1               	movwf	Lcd_Write_String@a+1
  9413  13A3  160A  158A  2774  160A  118A  	fcall	_Lcd_Write_String
  9414  13A8                     l4471:	
  9415                           
  9416                           ;Codigo_TT2_01.c: 489:     Lcd_Set_Cursor(2,4);
  9417  13A8  3004               	movlw	4
  9418  13A9  1283               	bcf	3,5	;RP0=0, select bank0
  9419  13AA  1303               	bcf	3,6	;RP1=0, select bank0
  9420  13AB  00A7               	movwf	??_CreditosInsuf
  9421  13AC  0827               	movf	??_CreditosInsuf,w
  9422  13AD  00F7               	movwf	Lcd_Set_Cursor@b
  9423  13AE  3002               	movlw	2
  9424  13AF  160A  118A  20B5  160A  118A  	fcall	_Lcd_Set_Cursor
  9425  13B4                     l4473:	
  9426                           
  9427                           ;Codigo_TT2_01.c: 490:     Lcd_Write_String("envases");
  9428  13B4  3081               	movlw	(low ((STR_10-__stringbase)| (0+32768)))& (0+255)
  9429  13B5  1283               	bcf	3,5	;RP0=0, select bank0
  9430  13B6  1303               	bcf	3,6	;RP1=0, select bank0
  9431  13B7  00A0               	movwf	Lcd_Write_String@a
  9432  13B8  3080               	movlw	128
  9433  13B9  00A1               	movwf	Lcd_Write_String@a+1
  9434  13BA  160A  158A  2774  160A  118A  	fcall	_Lcd_Write_String
  9435  13BF                     l4475:	
  9436                           
  9437                           ;Codigo_TT2_01.c: 491:     _delay((unsigned long)((2000)*(8000000/4000.0)));
  9438  13BF  3015               	movlw	21
  9439  13C0  1283               	bcf	3,5	;RP0=0, select bank0
  9440  13C1  1303               	bcf	3,6	;RP1=0, select bank0
  9441  13C2  00A9               	movwf	??_CreditosInsuf+2
  9442  13C3  304B               	movlw	75
  9443  13C4  00A8               	movwf	??_CreditosInsuf+1
  9444  13C5  30BD               	movlw	189
  9445  13C6  00A7               	movwf	??_CreditosInsuf
  9446  13C7                     u7087:	
  9447  13C7  0BA7               	decfsz	??_CreditosInsuf,f
  9448  13C8  2BC7               	goto	u7087
  9449  13C9  0BA8               	decfsz	??_CreditosInsuf+1,f
  9450  13CA  2BC7               	goto	u7087
  9451  13CB  0BA9               	decfsz	??_CreditosInsuf+2,f
  9452  13CC  2BC7               	goto	u7087
  9453  13CD  2BCE               	nop2
  9454  13CE                     l334:	
  9455  13CE  0008               	return
  9456  13CF                     __end_of_CreditosInsuf:	
  9457                           
  9458                           	psect	text24
  9459  1F74                     __ptext24:	
  9460 ;; *************** function _Lcd_Write_String *****************
  9461 ;; Defined at:
  9462 ;;		line 97 in file "./lcd.h"
  9463 ;; Parameters:    Size  Location     Type
  9464 ;;  a               2    0[BANK0 ] PTR unsigned char 
  9465 ;;		 -> STR_14(19), STR_13(7), STR_12(11), STR_11(11), 
  9466 ;;		 -> STR_10(8), STR_9(12), STR_8(14), STR_7(9), 
  9467 ;;		 -> STR_6(2), STR_5(2), dato_c(20), STR_4(11), 
  9468 ;;		 -> STR_3(12), STR_2(10), STR_1(19), 
  9469 ;; Auto vars:     Size  Location     Type
  9470 ;;  i               2    5[BANK0 ] int 
  9471 ;; Return value:  Size  Location     Type
  9472 ;;                  1    wreg      void 
  9473 ;; Registers used:
  9474 ;;		wreg, fsr0l, fsr0h, status,2, status,0, btemp+1, pclath, cstack
  9475 ;; Tracked objects:
  9476 ;;		On entry : 0/0
  9477 ;;		On exit  : 0/0
  9478 ;;		Unchanged: 0/0
  9479 ;; Data sizes:     COMMON   BANK0   BANK1   BANK3   BANK2
  9480 ;;      Params:         0       2       0       0       0
  9481 ;;      Locals:         0       2       0       0       0
  9482 ;;      Temps:          0       3       0       0       0
  9483 ;;      Totals:         0       7       0       0       0
  9484 ;;Total ram usage:        7 bytes
  9485 ;; Hardware stack levels used:    1
  9486 ;; Hardware stack levels required when called:    3
  9487 ;; This function calls:
  9488 ;;		_Lcd_Write_Char
  9489 ;; This function is called by:
  9490 ;;		_main
  9491 ;;		_MostrarCreditos
  9492 ;;		_CreditosInsuf
  9493 ;;		_Menu1
  9494 ;; This function uses a non-reentrant model
  9495 ;;
  9496                           
  9497                           
  9498                           ;psect for function _Lcd_Write_String
  9499  1F74                     _Lcd_Write_String:	
  9500  1F74                     l3971:	
  9501                           ;incstack = 0
  9502                           ; Regs used in _Lcd_Write_String: [wreg-fsr0h+status,2+status,0+btemp+1+pclath+cstack]
  9503                           
  9504                           
  9505                           ;./lcd.h: 97: void Lcd_Write_String(char *a);./lcd.h: 98: {;./lcd.h: 99:  int i;;./lcd.h
      +                          : 100:  for(i=0;a[i]!='\0';i++)
  9506  1F74  1283               	bcf	3,5	;RP0=0, select bank0
  9507  1F75  1303               	bcf	3,6	;RP1=0, select bank0
  9508  1F76  01A5               	clrf	Lcd_Write_String@i
  9509  1F77  01A6               	clrf	Lcd_Write_String@i+1
  9510  1F78  2F9D               	goto	l3977
  9511  1F79                     l3973:	
  9512                           
  9513                           ;./lcd.h: 101:     Lcd_Write_Char(a[i]);
  9514  1F79  0825               	movf	Lcd_Write_String@i,w
  9515  1F7A  0720               	addwf	Lcd_Write_String@a,w
  9516  1F7B  00A3               	movwf	??_Lcd_Write_String+1
  9517  1F7C  0821               	movf	Lcd_Write_String@a+1,w
  9518  1F7D  00A2               	movwf	??_Lcd_Write_String
  9519  1F7E  1803               	skipnc
  9520  1F7F  0AA2               	incf	??_Lcd_Write_String,f
  9521  1F80  1FA5               	btfss	Lcd_Write_String@i,7
  9522  1F81  2F83               	goto	u5290
  9523  1F82  03A2               	decf	??_Lcd_Write_String,f
  9524  1F83                     u5290:	
  9525  1F83  1283               	bcf	3,5	;RP0=0, select bank0
  9526  1F84  1303               	bcf	3,6	;RP1=0, select bank0
  9527  1F85  0822               	movf	??_Lcd_Write_String,w
  9528  1F86  00A4               	movwf	??_Lcd_Write_String+2
  9529  1F87  0824               	movf	??_Lcd_Write_String+2,w
  9530  1F88  00FF               	movwf	btemp+1
  9531  1F89  0823               	movf	??_Lcd_Write_String+1,w
  9532  1F8A  0084               	movwf	4
  9533  1F8B  160A  118A  2000  160A  158A  	fcall	stringtab
  9534  1F90  160A  158A  2701  160A  158A  	fcall	_Lcd_Write_Char
  9535  1F95                     l3975:	
  9536  1F95  3001               	movlw	1
  9537  1F96  1283               	bcf	3,5	;RP0=0, select bank0
  9538  1F97  1303               	bcf	3,6	;RP1=0, select bank0
  9539  1F98  07A5               	addwf	Lcd_Write_String@i,f
  9540  1F99  1803               	skipnc
  9541  1F9A  0AA6               	incf	Lcd_Write_String@i+1,f
  9542  1F9B  3000               	movlw	0
  9543  1F9C  07A6               	addwf	Lcd_Write_String@i+1,f
  9544  1F9D                     l3977:	
  9545  1F9D  0825               	movf	Lcd_Write_String@i,w
  9546  1F9E  0720               	addwf	Lcd_Write_String@a,w
  9547  1F9F  00A3               	movwf	??_Lcd_Write_String+1
  9548  1FA0  0821               	movf	Lcd_Write_String@a+1,w
  9549  1FA1  00A2               	movwf	??_Lcd_Write_String
  9550  1FA2  1803               	skipnc
  9551  1FA3  0AA2               	incf	??_Lcd_Write_String,f
  9552  1FA4  1FA5               	btfss	Lcd_Write_String@i,7
  9553  1FA5  2FA7               	goto	u5300
  9554  1FA6  03A2               	decf	??_Lcd_Write_String,f
  9555  1FA7                     u5300:	
  9556  1FA7  1283               	bcf	3,5	;RP0=0, select bank0
  9557  1FA8  1303               	bcf	3,6	;RP1=0, select bank0
  9558  1FA9  0822               	movf	??_Lcd_Write_String,w
  9559  1FAA  00A4               	movwf	??_Lcd_Write_String+2
  9560  1FAB  0824               	movf	??_Lcd_Write_String+2,w
  9561  1FAC  00FF               	movwf	btemp+1
  9562  1FAD  0823               	movf	??_Lcd_Write_String+1,w
  9563  1FAE  0084               	movwf	4
  9564  1FAF  160A  118A  2000  160A  158A  	fcall	stringtab
  9565  1FB4  3A00               	xorlw	0
  9566  1FB5  1D03               	skipz
  9567  1FB6  2FB8               	goto	u5311
  9568  1FB7  2FB9               	goto	u5310
  9569  1FB8                     u5311:	
  9570  1FB8  2F79               	goto	l3973
  9571  1FB9                     u5310:	
  9572  1FB9                     l143:	
  9573  1FB9  0008               	return
  9574  1FBA                     __end_of_Lcd_Write_String:	
  9575                           
  9576                           	psect	text25
  9577  1F01                     __ptext25:	
  9578 ;; *************** function _Lcd_Write_Char *****************
  9579 ;; Defined at:
  9580 ;;		line 81 in file "./lcd.h"
  9581 ;; Parameters:    Size  Location     Type
  9582 ;;  a               1    wreg     unsigned char 
  9583 ;; Auto vars:     Size  Location     Type
  9584 ;;  a               1    7[COMMON] unsigned char 
  9585 ;;  y               1    6[COMMON] unsigned char 
  9586 ;;  temp            1    5[COMMON] unsigned char 
  9587 ;; Return value:  Size  Location     Type
  9588 ;;                  1    wreg      void 
  9589 ;; Registers used:
  9590 ;;		wreg, status,2, status,0, pclath, cstack
  9591 ;; Tracked objects:
  9592 ;;		On entry : 0/0
  9593 ;;		On exit  : 0/0
  9594 ;;		Unchanged: 0/0
  9595 ;; Data sizes:     COMMON   BANK0   BANK1   BANK3   BANK2
  9596 ;;      Params:         0       0       0       0       0
  9597 ;;      Locals:         3       0       0       0       0
  9598 ;;      Temps:          1       0       0       0       0
  9599 ;;      Totals:         4       0       0       0       0
  9600 ;;Total ram usage:        4 bytes
  9601 ;; Hardware stack levels used:    1
  9602 ;; Hardware stack levels required when called:    2
  9603 ;; This function calls:
  9604 ;;		_Lcd_Port
  9605 ;; This function is called by:
  9606 ;;		_Lcd_Write_String
  9607 ;; This function uses a non-reentrant model
  9608 ;;
  9609                           
  9610                           
  9611                           ;psect for function _Lcd_Write_Char
  9612  1F01                     _Lcd_Write_Char:	
  9613                           
  9614                           ;incstack = 0
  9615                           ; Regs used in _Lcd_Write_Char: [wreg+status,2+status,0+pclath+cstack]
  9616                           ;Lcd_Write_Char@a stored from wreg
  9617  1F01  00F7               	movwf	Lcd_Write_Char@a
  9618  1F02                     l2509:	
  9619                           
  9620                           ;./lcd.h: 81: void Lcd_Write_Char(char a);./lcd.h: 82: {;./lcd.h: 83:    char temp,y;;./
      +                          lcd.h: 84:    temp = a&0x0F;
  9621  1F02  0877               	movf	Lcd_Write_Char@a,w
  9622  1F03  390F               	andlw	15
  9623  1F04  00F4               	movwf	??_Lcd_Write_Char
  9624  1F05  0874               	movf	??_Lcd_Write_Char,w
  9625  1F06  00F5               	movwf	Lcd_Write_Char@temp
  9626                           
  9627                           ;./lcd.h: 85:    y = a&0xF0;
  9628  1F07  0877               	movf	Lcd_Write_Char@a,w
  9629  1F08  39F0               	andlw	240
  9630  1F09  00F4               	movwf	??_Lcd_Write_Char
  9631  1F0A  0874               	movf	??_Lcd_Write_Char,w
  9632  1F0B  00F6               	movwf	Lcd_Write_Char@y
  9633  1F0C                     l2511:	
  9634                           
  9635                           ;./lcd.h: 86:    RD2 = 1;
  9636  1F0C  1283               	bcf	3,5	;RP0=0, select bank0
  9637  1F0D  1303               	bcf	3,6	;RP1=0, select bank0
  9638  1F0E  1508               	bsf	8,2	;volatile
  9639  1F0F                     l2513:	
  9640                           
  9641                           ;./lcd.h: 87:    Lcd_Port(y>>4);
  9642  1F0F  0876               	movf	Lcd_Write_Char@y,w
  9643  1F10  00F4               	movwf	??_Lcd_Write_Char
  9644  1F11  3004               	movlw	4
  9645  1F12                     u2775:	
  9646  1F12  1003               	clrc
  9647  1F13  0CF4               	rrf	??_Lcd_Write_Char,f
  9648  1F14  3EFF               	addlw	-1
  9649  1F15  1D03               	skipz
  9650  1F16  2F12               	goto	u2775
  9651  1F17  0874               	movf	??_Lcd_Write_Char,w
  9652  1F18  160A  158A  2602  160A  158A  	fcall	_Lcd_Port
  9653  1F1D                     l2515:	
  9654                           
  9655                           ;./lcd.h: 88:    RD3 = 1;
  9656  1F1D  1283               	bcf	3,5	;RP0=0, select bank0
  9657  1F1E  1303               	bcf	3,6	;RP1=0, select bank0
  9658  1F1F  1588               	bsf	8,3	;volatile
  9659  1F20                     l2517:	
  9660                           
  9661                           ;./lcd.h: 89:    _delay((unsigned long)((40)*(8000000/4000000.0)));
  9662  1F20  301A               	movlw	26
  9663  1F21  00F4               	movwf	??_Lcd_Write_Char
  9664  1F22                     u7097:	
  9665  1F22  0BF4               	decfsz	??_Lcd_Write_Char,f
  9666  1F23  2F22               	goto	u7097
  9667  1F24  0000               	nop
  9668  1F25                     l2519:	
  9669                           
  9670                           ;./lcd.h: 90:    RD3 = 0;
  9671  1F25  1283               	bcf	3,5	;RP0=0, select bank0
  9672  1F26  1303               	bcf	3,6	;RP1=0, select bank0
  9673  1F27  1188               	bcf	8,3	;volatile
  9674  1F28                     l2521:	
  9675                           
  9676                           ;./lcd.h: 91:    Lcd_Port(temp);
  9677  1F28  0875               	movf	Lcd_Write_Char@temp,w
  9678  1F29  160A  158A  2602  160A  158A  	fcall	_Lcd_Port
  9679  1F2E                     l2523:	
  9680                           
  9681                           ;./lcd.h: 92:    RD3 = 1;
  9682  1F2E  1283               	bcf	3,5	;RP0=0, select bank0
  9683  1F2F  1303               	bcf	3,6	;RP1=0, select bank0
  9684  1F30  1588               	bsf	8,3	;volatile
  9685  1F31                     l2525:	
  9686                           
  9687                           ;./lcd.h: 93:    _delay((unsigned long)((40)*(8000000/4000000.0)));
  9688  1F31  301A               	movlw	26
  9689  1F32  00F4               	movwf	??_Lcd_Write_Char
  9690  1F33                     u7107:	
  9691  1F33  0BF4               	decfsz	??_Lcd_Write_Char,f
  9692  1F34  2F33               	goto	u7107
  9693  1F35  0000               	nop
  9694  1F36                     l2527:	
  9695                           
  9696                           ;./lcd.h: 94:    RD3 = 0;
  9697  1F36  1283               	bcf	3,5	;RP0=0, select bank0
  9698  1F37  1303               	bcf	3,6	;RP1=0, select bank0
  9699  1F38  1188               	bcf	8,3	;volatile
  9700  1F39                     l137:	
  9701  1F39  0008               	return
  9702  1F3A                     __end_of_Lcd_Write_Char:	
  9703                           
  9704                           	psect	text26
  9705  10B5                     __ptext26:	
  9706 ;; *************** function _Lcd_Set_Cursor *****************
  9707 ;; Defined at:
  9708 ;;		line 41 in file "./lcd.h"
  9709 ;; Parameters:    Size  Location     Type
  9710 ;;  a               1    wreg     unsigned char 
  9711 ;;  b               1    7[COMMON] unsigned char 
  9712 ;; Auto vars:     Size  Location     Type
  9713 ;;  a               1    2[BANK0 ] unsigned char 
  9714 ;;  temp            1    5[BANK0 ] unsigned char 
  9715 ;;  y               1    4[BANK0 ] unsigned char 
  9716 ;;  z               1    3[BANK0 ] unsigned char 
  9717 ;; Return value:  Size  Location     Type
  9718 ;;                  1    wreg      void 
  9719 ;; Registers used:
  9720 ;;		wreg, status,2, status,0, pclath, cstack
  9721 ;; Tracked objects:
  9722 ;;		On entry : 0/0
  9723 ;;		On exit  : 0/0
  9724 ;;		Unchanged: 0/0
  9725 ;; Data sizes:     COMMON   BANK0   BANK1   BANK3   BANK2
  9726 ;;      Params:         1       0       0       0       0
  9727 ;;      Locals:         0       4       0       0       0
  9728 ;;      Temps:          0       2       0       0       0
  9729 ;;      Totals:         1       6       0       0       0
  9730 ;;Total ram usage:        7 bytes
  9731 ;; Hardware stack levels used:    1
  9732 ;; Hardware stack levels required when called:    3
  9733 ;; This function calls:
  9734 ;;		_Lcd_Cmd
  9735 ;; This function is called by:
  9736 ;;		_main
  9737 ;;		_CreditosInsuf
  9738 ;;		_Menu1
  9739 ;; This function uses a non-reentrant model
  9740 ;;
  9741                           
  9742                           
  9743                           ;psect for function _Lcd_Set_Cursor
  9744  10B5                     _Lcd_Set_Cursor:	
  9745                           
  9746                           ;incstack = 0
  9747                           ; Regs used in _Lcd_Set_Cursor: [wreg+status,2+status,0+pclath+cstack]
  9748                           ;Lcd_Set_Cursor@a stored from wreg
  9749  10B5  1283               	bcf	3,5	;RP0=0, select bank0
  9750  10B6  1303               	bcf	3,6	;RP1=0, select bank0
  9751  10B7  00A2               	movwf	Lcd_Set_Cursor@a
  9752  10B8                     l4073:	
  9753                           
  9754                           ;./lcd.h: 41: void Lcd_Set_Cursor(char a, char b);./lcd.h: 42: {;./lcd.h: 43:  char temp
      +                          ,z,y;;./lcd.h: 44:  if(a == 1)
  9755  10B8  0322               	decf	Lcd_Set_Cursor@a,w
  9756  10B9  1D03               	btfss	3,2
  9757  10BA  28BC               	goto	u5571
  9758  10BB  28BD               	goto	u5570
  9759  10BC                     u5571:	
  9760  10BC  28E2               	goto	l4083
  9761  10BD                     u5570:	
  9762  10BD                     l4075:	
  9763                           
  9764                           ;./lcd.h: 45:  {;./lcd.h: 46:    temp = 0x80 + b - 1;
  9765  10BD  0877               	movf	Lcd_Set_Cursor@b,w
  9766  10BE  3E7F               	addlw	127
  9767  10BF  00A0               	movwf	??_Lcd_Set_Cursor
  9768  10C0  0820               	movf	??_Lcd_Set_Cursor,w
  9769  10C1  00A5               	movwf	Lcd_Set_Cursor@temp
  9770                           
  9771                           ;./lcd.h: 47:   z = temp>>4;
  9772  10C2  0825               	movf	Lcd_Set_Cursor@temp,w
  9773  10C3  00A0               	movwf	??_Lcd_Set_Cursor
  9774  10C4  3004               	movlw	4
  9775  10C5                     u5585:	
  9776  10C5  1003               	clrc
  9777  10C6  0CA0               	rrf	??_Lcd_Set_Cursor,f
  9778  10C7  3EFF               	addlw	-1
  9779  10C8  1D03               	skipz
  9780  10C9  28C5               	goto	u5585
  9781  10CA  0820               	movf	??_Lcd_Set_Cursor,w
  9782  10CB  00A1               	movwf	??_Lcd_Set_Cursor+1
  9783  10CC  0821               	movf	??_Lcd_Set_Cursor+1,w
  9784  10CD  00A3               	movwf	Lcd_Set_Cursor@z
  9785  10CE                     l4077:	
  9786                           
  9787                           ;./lcd.h: 48:   y = temp & 0x0F;
  9788  10CE  0825               	movf	Lcd_Set_Cursor@temp,w
  9789  10CF  390F               	andlw	15
  9790  10D0  00A0               	movwf	??_Lcd_Set_Cursor
  9791  10D1  0820               	movf	??_Lcd_Set_Cursor,w
  9792  10D2  00A4               	movwf	Lcd_Set_Cursor@y
  9793  10D3                     l4079:	
  9794                           
  9795                           ;./lcd.h: 49:   Lcd_Cmd(z);
  9796  10D3  0823               	movf	Lcd_Set_Cursor@z,w
  9797  10D4  160A  158A  25E8  160A  118A  	fcall	_Lcd_Cmd
  9798  10D9                     l4081:	
  9799                           
  9800                           ;./lcd.h: 50:   Lcd_Cmd(y);
  9801  10D9  1283               	bcf	3,5	;RP0=0, select bank0
  9802  10DA  1303               	bcf	3,6	;RP1=0, select bank0
  9803  10DB  0824               	movf	Lcd_Set_Cursor@y,w
  9804  10DC  160A  158A  25E8  160A  118A  	fcall	_Lcd_Cmd
  9805                           
  9806                           ;./lcd.h: 51:  }
  9807  10E1  290C               	goto	l131
  9808  10E2                     l4083:	
  9809  10E2  3002               	movlw	2
  9810  10E3  0622               	xorwf	Lcd_Set_Cursor@a,w
  9811  10E4  1D03               	btfss	3,2
  9812  10E5  28E7               	goto	u5591
  9813  10E6  28E8               	goto	u5590
  9814  10E7                     u5591:	
  9815  10E7  290C               	goto	l131
  9816  10E8                     u5590:	
  9817  10E8                     l4085:	
  9818                           
  9819                           ;./lcd.h: 53:  {;./lcd.h: 54:   temp = 0xC0 + b - 1;
  9820  10E8  0877               	movf	Lcd_Set_Cursor@b,w
  9821  10E9  3EBF               	addlw	191
  9822  10EA  00A0               	movwf	??_Lcd_Set_Cursor
  9823  10EB  0820               	movf	??_Lcd_Set_Cursor,w
  9824  10EC  00A5               	movwf	Lcd_Set_Cursor@temp
  9825                           
  9826                           ;./lcd.h: 55:   z = temp>>4;
  9827  10ED  0825               	movf	Lcd_Set_Cursor@temp,w
  9828  10EE  00A0               	movwf	??_Lcd_Set_Cursor
  9829  10EF  3004               	movlw	4
  9830  10F0                     u5605:	
  9831  10F0  1003               	clrc
  9832  10F1  0CA0               	rrf	??_Lcd_Set_Cursor,f
  9833  10F2  3EFF               	addlw	-1
  9834  10F3  1D03               	skipz
  9835  10F4  28F0               	goto	u5605
  9836  10F5  0820               	movf	??_Lcd_Set_Cursor,w
  9837  10F6  00A1               	movwf	??_Lcd_Set_Cursor+1
  9838  10F7  0821               	movf	??_Lcd_Set_Cursor+1,w
  9839  10F8  00A3               	movwf	Lcd_Set_Cursor@z
  9840  10F9                     l4087:	
  9841                           
  9842                           ;./lcd.h: 56:   y = temp & 0x0F;
  9843  10F9  0825               	movf	Lcd_Set_Cursor@temp,w
  9844  10FA  390F               	andlw	15
  9845  10FB  00A0               	movwf	??_Lcd_Set_Cursor
  9846  10FC  0820               	movf	??_Lcd_Set_Cursor,w
  9847  10FD  00A4               	movwf	Lcd_Set_Cursor@y
  9848  10FE                     l4089:	
  9849                           
  9850                           ;./lcd.h: 57:   Lcd_Cmd(z);
  9851  10FE  0823               	movf	Lcd_Set_Cursor@z,w
  9852  10FF  160A  158A  25E8  160A  118A  	fcall	_Lcd_Cmd
  9853  1104                     l4091:	
  9854                           
  9855                           ;./lcd.h: 58:   Lcd_Cmd(y);
  9856  1104  1283               	bcf	3,5	;RP0=0, select bank0
  9857  1105  1303               	bcf	3,6	;RP1=0, select bank0
  9858  1106  0824               	movf	Lcd_Set_Cursor@y,w
  9859  1107  160A  158A  25E8  160A  118A  	fcall	_Lcd_Cmd
  9860  110C                     l131:	
  9861  110C  0008               	return
  9862  110D                     __end_of_Lcd_Set_Cursor:	
  9863                           
  9864                           	psect	text27
  9865  10A8                     __ptext27:	
  9866 ;; *************** function _Lcd_Clear *****************
  9867 ;; Defined at:
  9868 ;;		line 35 in file "./lcd.h"
  9869 ;; Parameters:    Size  Location     Type
  9870 ;;		None
  9871 ;; Auto vars:     Size  Location     Type
  9872 ;;		None
  9873 ;; Return value:  Size  Location     Type
  9874 ;;                  2  124[None  ] int 
  9875 ;; Registers used:
  9876 ;;		wreg, status,2, status,0, pclath, cstack
  9877 ;; Tracked objects:
  9878 ;;		On entry : 0/0
  9879 ;;		On exit  : 0/0
  9880 ;;		Unchanged: 0/0
  9881 ;; Data sizes:     COMMON   BANK0   BANK1   BANK3   BANK2
  9882 ;;      Params:         0       0       0       0       0
  9883 ;;      Locals:         0       0       0       0       0
  9884 ;;      Temps:          0       0       0       0       0
  9885 ;;      Totals:         0       0       0       0       0
  9886 ;;Total ram usage:        0 bytes
  9887 ;; Hardware stack levels used:    1
  9888 ;; Hardware stack levels required when called:    3
  9889 ;; This function calls:
  9890 ;;		_Lcd_Cmd
  9891 ;; This function is called by:
  9892 ;;		_main
  9893 ;;		_CreditosInsuf
  9894 ;;		_Menu1
  9895 ;; This function uses a non-reentrant model
  9896 ;;
  9897                           
  9898                           
  9899                           ;psect for function _Lcd_Clear
  9900  10A8                     _Lcd_Clear:	
  9901  10A8                     l2981:	
  9902                           ;incstack = 0
  9903                           ; Regs used in _Lcd_Clear: [wreg+status,2+status,0+pclath+cstack]
  9904                           
  9905                           
  9906                           ;./lcd.h: 37:  Lcd_Cmd(0);
  9907  10A8  3000               	movlw	0
  9908  10A9  160A  158A  25E8  160A  118A  	fcall	_Lcd_Cmd
  9909                           
  9910                           ;./lcd.h: 38:  Lcd_Cmd(1);
  9911  10AE  3001               	movlw	1
  9912  10AF  160A  158A  25E8  160A  118A  	fcall	_Lcd_Cmd
  9913  10B4                     l125:	
  9914  10B4  0008               	return
  9915  10B5                     __end_of_Lcd_Clear:	
  9916                           
  9917                           	psect	text28
  9918  1DE8                     __ptext28:	
  9919 ;; *************** function _Lcd_Cmd *****************
  9920 ;; Defined at:
  9921 ;;		line 26 in file "./lcd.h"
  9922 ;; Parameters:    Size  Location     Type
  9923 ;;  a               1    wreg     unsigned char 
  9924 ;; Auto vars:     Size  Location     Type
  9925 ;;  a               1    6[COMMON] unsigned char 
  9926 ;; Return value:  Size  Location     Type
  9927 ;;                  1    wreg      void 
  9928 ;; Registers used:
  9929 ;;		wreg, status,2, status,0, pclath, cstack
  9930 ;; Tracked objects:
  9931 ;;		On entry : 0/0
  9932 ;;		On exit  : 0/0
  9933 ;;		Unchanged: 0/0
  9934 ;; Data sizes:     COMMON   BANK0   BANK1   BANK3   BANK2
  9935 ;;      Params:         0       0       0       0       0
  9936 ;;      Locals:         1       0       0       0       0
  9937 ;;      Temps:          2       0       0       0       0
  9938 ;;      Totals:         3       0       0       0       0
  9939 ;;Total ram usage:        3 bytes
  9940 ;; Hardware stack levels used:    1
  9941 ;; Hardware stack levels required when called:    2
  9942 ;; This function calls:
  9943 ;;		_Lcd_Port
  9944 ;; This function is called by:
  9945 ;;		_Lcd_Clear
  9946 ;;		_Lcd_Set_Cursor
  9947 ;;		_Lcd_Init
  9948 ;;		_Lcd_Shift_Right
  9949 ;;		_Lcd_Shift_Left
  9950 ;; This function uses a non-reentrant model
  9951 ;;
  9952                           
  9953                           
  9954                           ;psect for function _Lcd_Cmd
  9955  1DE8                     _Lcd_Cmd:	
  9956                           
  9957                           ;incstack = 0
  9958                           ; Regs used in _Lcd_Cmd: [wreg+status,2+status,0+pclath+cstack]
  9959                           ;Lcd_Cmd@a stored from wreg
  9960  1DE8  00F6               	movwf	Lcd_Cmd@a
  9961  1DE9                     l2573:	
  9962                           
  9963                           ;./lcd.h: 26: void Lcd_Cmd(char a);./lcd.h: 27: {;./lcd.h: 28:  RD2 = 0;
  9964  1DE9  1283               	bcf	3,5	;RP0=0, select bank0
  9965  1DEA  1303               	bcf	3,6	;RP1=0, select bank0
  9966  1DEB  1108               	bcf	8,2	;volatile
  9967  1DEC                     l2575:	
  9968                           
  9969                           ;./lcd.h: 29:  Lcd_Port(a);
  9970  1DEC  0876               	movf	Lcd_Cmd@a,w
  9971  1DED  160A  158A  2602  160A  158A  	fcall	_Lcd_Port
  9972  1DF2                     l2577:	
  9973                           
  9974                           ;./lcd.h: 30:  RD3 = 1;
  9975  1DF2  1283               	bcf	3,5	;RP0=0, select bank0
  9976  1DF3  1303               	bcf	3,6	;RP1=0, select bank0
  9977  1DF4  1588               	bsf	8,3	;volatile
  9978  1DF5                     l2579:	
  9979                           
  9980                           ;./lcd.h: 31:         _delay((unsigned long)((4)*(8000000/4000.0)));
  9981  1DF5  300B               	movlw	11
  9982  1DF6  00F5               	movwf	??_Lcd_Cmd+1
  9983  1DF7  3062               	movlw	98
  9984  1DF8  00F4               	movwf	??_Lcd_Cmd
  9985  1DF9                     u7117:	
  9986  1DF9  0BF4               	decfsz	??_Lcd_Cmd,f
  9987  1DFA  2DF9               	goto	u7117
  9988  1DFB  0BF5               	decfsz	??_Lcd_Cmd+1,f
  9989  1DFC  2DF9               	goto	u7117
  9990  1DFD  0000               	nop
  9991  1DFE                     l2581:	
  9992                           
  9993                           ;./lcd.h: 32:         RD3 = 0;
  9994  1DFE  1283               	bcf	3,5	;RP0=0, select bank0
  9995  1DFF  1303               	bcf	3,6	;RP1=0, select bank0
  9996  1E00  1188               	bcf	8,3	;volatile
  9997  1E01                     l122:	
  9998  1E01  0008               	return
  9999  1E02                     __end_of_Lcd_Cmd:	
 10000                           
 10001                           	psect	text29
 10002  1E02                     __ptext29:	
 10003 ;; *************** function _Lcd_Port *****************
 10004 ;; Defined at:
 10005 ;;		line 4 in file "./lcd.h"
 10006 ;; Parameters:    Size  Location     Type
 10007 ;;  a               1    wreg     unsigned char 
 10008 ;; Auto vars:     Size  Location     Type
 10009 ;;  a               1    3[COMMON] unsigned char 
 10010 ;; Return value:  Size  Location     Type
 10011 ;;                  1    wreg      void 
 10012 ;; Registers used:
 10013 ;;		wreg
 10014 ;; Tracked objects:
 10015 ;;		On entry : 0/0
 10016 ;;		On exit  : 0/0
 10017 ;;		Unchanged: 0/0
 10018 ;; Data sizes:     COMMON   BANK0   BANK1   BANK3   BANK2
 10019 ;;      Params:         0       0       0       0       0
 10020 ;;      Locals:         1       0       0       0       0
 10021 ;;      Temps:          0       0       0       0       0
 10022 ;;      Totals:         1       0       0       0       0
 10023 ;;Total ram usage:        1 bytes
 10024 ;; Hardware stack levels used:    1
 10025 ;; Hardware stack levels required when called:    1
 10026 ;; This function calls:
 10027 ;;		Nothing
 10028 ;; This function is called by:
 10029 ;;		_Lcd_Cmd
 10030 ;;		_Lcd_Init
 10031 ;;		_Lcd_Write_Char
 10032 ;; This function uses a non-reentrant model
 10033 ;;
 10034                           
 10035                           
 10036                           ;psect for function _Lcd_Port
 10037  1E02                     _Lcd_Port:	
 10038                           
 10039                           ;incstack = 0
 10040                           ; Regs used in _Lcd_Port: [wreg]
 10041                           ;Lcd_Port@a stored from wreg
 10042  1E02  00F3               	movwf	Lcd_Port@a
 10043  1E03                     l2451:	
 10044                           
 10045                           ;./lcd.h: 4: void Lcd_Port(char a);./lcd.h: 5: {;./lcd.h: 6:  if(a & 1)
 10046  1E03  1C73               	btfss	Lcd_Port@a,0
 10047  1E04  2E06               	goto	u2601
 10048  1E05  2E07               	goto	u2600
 10049  1E06                     u2601:	
 10050  1E06  2E0B               	goto	l111
 10051  1E07                     u2600:	
 10052  1E07                     l2453:	
 10053                           
 10054                           ;./lcd.h: 7:   RD4 = 1;
 10055  1E07  1283               	bcf	3,5	;RP0=0, select bank0
 10056  1E08  1303               	bcf	3,6	;RP1=0, select bank0
 10057  1E09  1608               	bsf	8,4	;volatile
 10058  1E0A  2E0E               	goto	l112
 10059  1E0B                     l111:	
 10060                           ;./lcd.h: 8:  else
 10061                           
 10062                           
 10063                           ;./lcd.h: 9:   RD4 = 0;
 10064  1E0B  1283               	bcf	3,5	;RP0=0, select bank0
 10065  1E0C  1303               	bcf	3,6	;RP1=0, select bank0
 10066  1E0D  1208               	bcf	8,4	;volatile
 10067  1E0E                     l112:	
 10068                           
 10069                           ;./lcd.h: 11:  if(a & 2)
 10070  1E0E  1CF3               	btfss	Lcd_Port@a,1
 10071  1E0F  2E11               	goto	u2611
 10072  1E10  2E12               	goto	u2610
 10073  1E11                     u2611:	
 10074  1E11  2E14               	goto	l113
 10075  1E12                     u2610:	
 10076  1E12                     l2455:	
 10077                           
 10078                           ;./lcd.h: 12:   RD5 = 1;
 10079  1E12  1688               	bsf	8,5	;volatile
 10080  1E13  2E15               	goto	l114
 10081  1E14                     l113:	
 10082                           ;./lcd.h: 13:  else
 10083                           
 10084                           
 10085                           ;./lcd.h: 14:   RD5 = 0;
 10086  1E14  1288               	bcf	8,5	;volatile
 10087  1E15                     l114:	
 10088                           
 10089                           ;./lcd.h: 16:  if(a & 4)
 10090  1E15  1D73               	btfss	Lcd_Port@a,2
 10091  1E16  2E18               	goto	u2621
 10092  1E17  2E19               	goto	u2620
 10093  1E18                     u2621:	
 10094  1E18  2E1B               	goto	l115
 10095  1E19                     u2620:	
 10096  1E19                     l2457:	
 10097                           
 10098                           ;./lcd.h: 17:   RD6 = 1;
 10099  1E19  1708               	bsf	8,6	;volatile
 10100  1E1A  2E1C               	goto	l116
 10101  1E1B                     l115:	
 10102                           ;./lcd.h: 18:  else
 10103                           
 10104                           
 10105                           ;./lcd.h: 19:   RD6 = 0;
 10106  1E1B  1308               	bcf	8,6	;volatile
 10107  1E1C                     l116:	
 10108                           
 10109                           ;./lcd.h: 21:  if(a & 8)
 10110  1E1C  1DF3               	btfss	Lcd_Port@a,3
 10111  1E1D  2E1F               	goto	u2631
 10112  1E1E  2E20               	goto	u2630
 10113  1E1F                     u2631:	
 10114  1E1F  2E22               	goto	l117
 10115  1E20                     u2630:	
 10116  1E20                     l2459:	
 10117                           
 10118                           ;./lcd.h: 22:   RD7 = 1;
 10119  1E20  1788               	bsf	8,7	;volatile
 10120  1E21  2E23               	goto	l119
 10121  1E22                     l117:	
 10122                           ;./lcd.h: 23:  else
 10123                           
 10124                           
 10125                           ;./lcd.h: 24:   RD7 = 0;
 10126  1E22  1388               	bcf	8,7	;volatile
 10127  1E23                     l119:	
 10128  1E23  0008               	return
 10129  1E24                     __end_of_Lcd_Port:	
 10130                           
 10131                           	psect	text30
 10132  1E46                     __ptext30:	
 10133 ;; *************** function _ConfiguracionInicial *****************
 10134 ;; Defined at:
 10135 ;;		line 291 in file "Codigo_TT2_01.c"
 10136 ;; Parameters:    Size  Location     Type
 10137 ;;		None
 10138 ;; Auto vars:     Size  Location     Type
 10139 ;;		None
 10140 ;; Return value:  Size  Location     Type
 10141 ;;                  1    wreg      void 
 10142 ;; Registers used:
 10143 ;;		wreg, status,2, status,0
 10144 ;; Tracked objects:
 10145 ;;		On entry : 0/0
 10146 ;;		On exit  : 0/0
 10147 ;;		Unchanged: 0/0
 10148 ;; Data sizes:     COMMON   BANK0   BANK1   BANK3   BANK2
 10149 ;;      Params:         0       0       0       0       0
 10150 ;;      Locals:         0       0       0       0       0
 10151 ;;      Temps:          0       0       0       0       0
 10152 ;;      Totals:         0       0       0       0       0
 10153 ;;Total ram usage:        0 bytes
 10154 ;; Hardware stack levels used:    1
 10155 ;; Hardware stack levels required when called:    1
 10156 ;; This function calls:
 10157 ;;		Nothing
 10158 ;; This function is called by:
 10159 ;;		_main
 10160 ;; This function uses a non-reentrant model
 10161 ;;
 10162                           
 10163                           
 10164                           ;psect for function _ConfiguracionInicial
 10165  1E46                     _ConfiguracionInicial:	
 10166  1E46                     l3261:	
 10167                           ;incstack = 0
 10168                           ; Regs used in _ConfiguracionInicial: [wreg+status,2+status,0]
 10169                           
 10170                           
 10171                           ;Codigo_TT2_01.c: 292:     OSCCONbits.IRCF = 0b111;
 10172  1E46  3070               	movlw	112
 10173  1E47  1683               	bsf	3,5	;RP0=1, select bank1
 10174  1E48  1303               	bcf	3,6	;RP1=0, select bank1
 10175  1E49  048F               	iorwf	15,f	;volatile
 10176  1E4A                     l3263:	
 10177                           
 10178                           ;Codigo_TT2_01.c: 293:     TRISA = 0x0F;
 10179  1E4A  300F               	movlw	15
 10180  1E4B  0085               	movwf	5	;volatile
 10181  1E4C                     l3265:	
 10182                           
 10183                           ;Codigo_TT2_01.c: 294:     TRISB = 0x40;
 10184  1E4C  3040               	movlw	64
 10185  1E4D  0086               	movwf	6	;volatile
 10186  1E4E                     l3267:	
 10187                           
 10188                           ;Codigo_TT2_01.c: 295:     TRISC = 0x08;
 10189  1E4E  3008               	movlw	8
 10190  1E4F  0087               	movwf	7	;volatile
 10191  1E50                     l3269:	
 10192                           
 10193                           ;Codigo_TT2_01.c: 296:     TRISD = 0x03;
 10194  1E50  3003               	movlw	3
 10195  1E51  0088               	movwf	8	;volatile
 10196  1E52                     l3271:	
 10197                           
 10198                           ;Codigo_TT2_01.c: 297:     TRISE = 0x00;
 10199  1E52  0189               	clrf	9	;volatile
 10200  1E53                     l3273:	
 10201                           
 10202                           ;Codigo_TT2_01.c: 298:     ANSEL = 0x01;
 10203  1E53  3001               	movlw	1
 10204  1E54  1683               	bsf	3,5	;RP0=1, select bank3
 10205  1E55  1703               	bsf	3,6	;RP1=1, select bank3
 10206  1E56  0088               	movwf	8	;volatile
 10207  1E57                     l3275:	
 10208                           
 10209                           ;Codigo_TT2_01.c: 299:     ANSELH = 0x00;
 10210  1E57  0189               	clrf	9	;volatile
 10211  1E58                     l3277:	
 10212                           
 10213                           ;Codigo_TT2_01.c: 300:     PORTA = 0x00;
 10214  1E58  1283               	bcf	3,5	;RP0=0, select bank0
 10215  1E59  1303               	bcf	3,6	;RP1=0, select bank0
 10216  1E5A  0185               	clrf	5	;volatile
 10217  1E5B                     l3279:	
 10218                           
 10219                           ;Codigo_TT2_01.c: 301:     PORTB = 0x00;
 10220  1E5B  0186               	clrf	6	;volatile
 10221  1E5C                     l3281:	
 10222                           
 10223                           ;Codigo_TT2_01.c: 302:     PORTC = 0x00;
 10224  1E5C  0187               	clrf	7	;volatile
 10225  1E5D                     l3283:	
 10226                           
 10227                           ;Codigo_TT2_01.c: 303:     PORTE = 0x00;
 10228  1E5D  0189               	clrf	9	;volatile
 10229  1E5E                     l3285:	
 10230                           
 10231                           ;Codigo_TT2_01.c: 304:     ADCON1 = 0b10010000;
 10232  1E5E  3090               	movlw	144
 10233  1E5F  1683               	bsf	3,5	;RP0=1, select bank1
 10234  1E60  1303               	bcf	3,6	;RP1=0, select bank1
 10235  1E61  009F               	movwf	31	;volatile
 10236  1E62                     l3287:	
 10237                           
 10238                           ;Codigo_TT2_01.c: 305:     ADCON0 = 0b11000001;
 10239  1E62  30C1               	movlw	193
 10240  1E63  1283               	bcf	3,5	;RP0=0, select bank0
 10241  1E64  1303               	bcf	3,6	;RP1=0, select bank0
 10242  1E65  009F               	movwf	31	;volatile
 10243  1E66                     l3289:	
 10244                           
 10245                           ;Codigo_TT2_01.c: 306:     ADCON0bits.CHS = 0;
 10246  1E66  30C3               	movlw	-61
 10247  1E67  059F               	andwf	31,f	;volatile
 10248  1E68                     l243:	
 10249  1E68  0008               	return
 10250  1E69                     __end_of_ConfiguracionInicial:	
 10251                           
 10252                           	psect	text31
 10253  12B9                     __ptext31:	
 10254 ;; *************** function _timer2 *****************
 10255 ;; Defined at:
 10256 ;;		line 82 in file "Codigo_TT2_01.c"
 10257 ;; Parameters:    Size  Location     Type
 10258 ;;		None
 10259 ;; Auto vars:     Size  Location     Type
 10260 ;;		None
 10261 ;; Return value:  Size  Location     Type
 10262 ;;                  1    wreg      void 
 10263 ;; Registers used:
 10264 ;;		wreg, status,2, status,0, btemp+1
 10265 ;; Tracked objects:
 10266 ;;		On entry : 0/0
 10267 ;;		On exit  : 0/0
 10268 ;;		Unchanged: 0/0
 10269 ;; Data sizes:     COMMON   BANK0   BANK1   BANK3   BANK2
 10270 ;;      Params:         0       0       0       0       0
 10271 ;;      Locals:         0       0       0       0       0
 10272 ;;      Temps:          3       0       0       0       0
 10273 ;;      Totals:         3       0       0       0       0
 10274 ;;Total ram usage:        3 bytes
 10275 ;; Hardware stack levels used:    1
 10276 ;; This function calls:
 10277 ;;		Nothing
 10278 ;; This function is called by:
 10279 ;;		Interrupt level 1
 10280 ;; This function uses a non-reentrant model
 10281 ;;
 10282                           
 10283                           
 10284                           ;psect for function _timer2
 10285  12B9                     _timer2:	
 10286  12B9                     i1l3559:	
 10287                           
 10288                           ;Codigo_TT2_01.c: 83:     TMR2IF=0;
 10289  12B9  108C               	bcf	12,1	;volatile
 10290  12BA                     i1l3561:	
 10291                           
 10292                           ;Codigo_TT2_01.c: 84:     if(angulo == 45 && alto_bajo == 1) {
 10293  12BA  302D               	movlw	45
 10294  12BB  1683               	bsf	3,5	;RP0=1, select bank1
 10295  12BC  1303               	bcf	3,6	;RP1=0, select bank1
 10296  12BD  0626               	xorwf	_angulo^(0+128),w
 10297  12BE  0427               	iorwf	(_angulo+1)^(0+128),w
 10298  12BF  1D03               	btfss	3,2
 10299  12C0  2AC2               	goto	u476_21
 10300  12C1  2AC3               	goto	u476_20
 10301  12C2                     u476_21:	
 10302  12C2  2AD3               	goto	i1l3571
 10303  12C3                     u476_20:	
 10304  12C3                     i1l3563:	
 10305  12C3  0379               	decf	_alto_bajo,w
 10306  12C4  047A               	iorwf	_alto_bajo+1,w
 10307  12C5  1D03               	btfss	3,2
 10308  12C6  2AC8               	goto	u477_21
 10309  12C7  2AC9               	goto	u477_20
 10310  12C8                     u477_21:	
 10311  12C8  2AD3               	goto	i1l3571
 10312  12C9                     u477_20:	
 10313  12C9                     i1l3565:	
 10314                           
 10315                           ;Codigo_TT2_01.c: 85:         RC2 = 1;
 10316  12C9  1283               	bcf	3,5	;RP0=0, select bank0
 10317  12CA  1303               	bcf	3,6	;RP1=0, select bank0
 10318  12CB  1507               	bsf	7,2	;volatile
 10319  12CC                     i1l3567:	
 10320                           
 10321                           ;Codigo_TT2_01.c: 86:         PR2 = 5;
 10322  12CC  3005               	movlw	5
 10323  12CD  1683               	bsf	3,5	;RP0=1, select bank1
 10324  12CE  1303               	bcf	3,6	;RP1=0, select bank1
 10325  12CF  0092               	movwf	18	;volatile
 10326  12D0                     i1l3569:	
 10327                           
 10328                           ;Codigo_TT2_01.c: 87:         alto_bajo = 0;
 10329  12D0  01F9               	clrf	_alto_bajo
 10330  12D1  01FA               	clrf	_alto_bajo+1
 10331                           
 10332                           ;Codigo_TT2_01.c: 88:     }
 10333  12D2  2B0B               	goto	i1l177
 10334  12D3                     i1l3571:	
 10335  12D3  302D               	movlw	45
 10336  12D4  0626               	xorwf	_angulo^(0+128),w
 10337  12D5  0427               	iorwf	(_angulo+1)^(0+128),w
 10338  12D6  1D03               	btfss	3,2
 10339  12D7  2AD9               	goto	u478_21
 10340  12D8  2ADA               	goto	u478_20
 10341  12D9                     u478_21:	
 10342  12D9  2AEC               	goto	i1l3579
 10343  12DA                     u478_20:	
 10344  12DA                     i1l3573:	
 10345  12DA  0879               	movf	_alto_bajo,w
 10346  12DB  047A               	iorwf	_alto_bajo+1,w
 10347  12DC  1D03               	btfss	3,2
 10348  12DD  2ADF               	goto	u479_21
 10349  12DE  2AE0               	goto	u479_20
 10350  12DF                     u479_21:	
 10351  12DF  2AEC               	goto	i1l3579
 10352  12E0                     u479_20:	
 10353  12E0                     i1l3575:	
 10354                           
 10355                           ;Codigo_TT2_01.c: 90:         RC2 = 0;
 10356  12E0  1283               	bcf	3,5	;RP0=0, select bank0
 10357  12E1  1303               	bcf	3,6	;RP1=0, select bank0
 10358  12E2  1107               	bcf	7,2	;volatile
 10359  12E3                     i1l3577:	
 10360                           
 10361                           ;Codigo_TT2_01.c: 91:         PR2 = 151;
 10362  12E3  3097               	movlw	151
 10363  12E4  1683               	bsf	3,5	;RP0=1, select bank1
 10364  12E5  1303               	bcf	3,6	;RP1=0, select bank1
 10365  12E6  0092               	movwf	18	;volatile
 10366                           
 10367                           ;Codigo_TT2_01.c: 92:         alto_bajo = 1;
 10368  12E7  3001               	movlw	1
 10369  12E8  00F9               	movwf	_alto_bajo
 10370  12E9  3000               	movlw	0
 10371  12EA  00FA               	movwf	_alto_bajo+1
 10372                           
 10373                           ;Codigo_TT2_01.c: 93:     }
 10374  12EB  2B0B               	goto	i1l177
 10375  12EC                     i1l3579:	
 10376  12EC  0826               	movf	_angulo^(0+128),w
 10377  12ED  0427               	iorwf	(_angulo+1)^(0+128),w
 10378  12EE  1D03               	btfss	3,2
 10379  12EF  2AF1               	goto	u480_21
 10380  12F0  2AF2               	goto	u480_20
 10381  12F1                     u480_21:	
 10382  12F1  2B00               	goto	i1l180
 10383  12F2                     u480_20:	
 10384  12F2                     i1l3581:	
 10385  12F2  0379               	decf	_alto_bajo,w
 10386  12F3  047A               	iorwf	_alto_bajo+1,w
 10387  12F4  1D03               	btfss	3,2
 10388  12F5  2AF7               	goto	u481_21
 10389  12F6  2AF8               	goto	u481_20
 10390  12F7                     u481_21:	
 10391  12F7  2B00               	goto	i1l180
 10392  12F8                     u481_20:	
 10393  12F8                     i1l3583:	
 10394                           
 10395                           ;Codigo_TT2_01.c: 95:         RC2 = 1;
 10396  12F8  1283               	bcf	3,5	;RP0=0, select bank0
 10397  12F9  1303               	bcf	3,6	;RP1=0, select bank0
 10398  12FA  1507               	bsf	7,2	;volatile
 10399  12FB                     i1l3585:	
 10400                           
 10401                           ;Codigo_TT2_01.c: 96:         PR2 = 7;
 10402  12FB  3007               	movlw	7
 10403  12FC  1683               	bsf	3,5	;RP0=1, select bank1
 10404  12FD  1303               	bcf	3,6	;RP1=0, select bank1
 10405  12FE  0092               	movwf	18	;volatile
 10406  12FF  2AD0               	goto	i1l3569
 10407  1300                     i1l180:	
 10408                           ;Codigo_TT2_01.c: 99:     else{
 10409                           
 10410                           
 10411                           ;Codigo_TT2_01.c: 100:         RC2 = 0;
 10412  1300  1283               	bcf	3,5	;RP0=0, select bank0
 10413  1301  1303               	bcf	3,6	;RP1=0, select bank0
 10414  1302  1107               	bcf	7,2	;volatile
 10415  1303                     i1l3589:	
 10416                           
 10417                           ;Codigo_TT2_01.c: 101:         PR2 = 149;
 10418  1303  3095               	movlw	149
 10419  1304  1683               	bsf	3,5	;RP0=1, select bank1
 10420  1305  1303               	bcf	3,6	;RP1=0, select bank1
 10421  1306  0092               	movwf	18	;volatile
 10422                           
 10423                           ;Codigo_TT2_01.c: 102:         alto_bajo = 1;
 10424  1307  3001               	movlw	1
 10425  1308  00F9               	movwf	_alto_bajo
 10426  1309  3000               	movlw	0
 10427  130A  00FA               	movwf	_alto_bajo+1
 10428  130B                     i1l177:	
 10429                           
 10430                           ;Codigo_TT2_01.c: 104:     parpadeo++;
 10431  130B  3001               	movlw	1
 10432  130C  1283               	bcf	3,5	;RP0=0, select bank0
 10433  130D  1303               	bcf	3,6	;RP1=0, select bank0
 10434  130E  07E8               	addwf	_parpadeo,f
 10435  130F  1803               	skipnc
 10436  1310  0AE9               	incf	_parpadeo+1,f
 10437  1311  3000               	movlw	0
 10438  1312  07E9               	addwf	_parpadeo+1,f
 10439  1313                     i1l3591:	
 10440                           
 10441                           ;Codigo_TT2_01.c: 105:     if((parpadeo >= 25) && (alerta)){
 10442  1313  0869               	movf	_parpadeo+1,w
 10443  1314  3A80               	xorlw	128
 10444  1315  00FF               	movwf	btemp+1
 10445  1316  3080               	movlw	128
 10446  1317  027F               	subwf	btemp+1,w
 10447  1318  1D03               	skipz
 10448  1319  2B1C               	goto	u482_25
 10449  131A  3019               	movlw	25
 10450  131B  0268               	subwf	_parpadeo,w
 10451  131C                     u482_25:	
 10452  131C  1C03               	skipc
 10453  131D  2B1F               	goto	u482_21
 10454  131E  2B20               	goto	u482_20
 10455  131F                     u482_21:	
 10456  131F  2B2E               	goto	i1l3599
 10457  1320                     u482_20:	
 10458  1320                     i1l3593:	
 10459  1320  1683               	bsf	3,5	;RP0=1, select bank1
 10460  1321  1303               	bcf	3,6	;RP1=0, select bank1
 10461  1322  0824               	movf	_alerta^(0+128),w
 10462  1323  0425               	iorwf	(_alerta+1)^(0+128),w
 10463  1324  1903               	btfsc	3,2
 10464  1325  2B27               	goto	u483_21
 10465  1326  2B28               	goto	u483_20
 10466  1327                     u483_21:	
 10467  1327  2B2E               	goto	i1l3599
 10468  1328                     u483_20:	
 10469  1328                     i1l3595:	
 10470                           
 10471                           ;Codigo_TT2_01.c: 106:         RC0 = (~RC0);
 10472  1328  3001               	movlw	1
 10473  1329  1283               	bcf	3,5	;RP0=0, select bank0
 10474  132A  1303               	bcf	3,6	;RP1=0, select bank0
 10475  132B  0687               	xorwf	7,f
 10476  132C                     i1l3597:	
 10477                           
 10478                           ;Codigo_TT2_01.c: 107:         parpadeo = 0;
 10479  132C  01E8               	clrf	_parpadeo
 10480  132D  01E9               	clrf	_parpadeo+1
 10481  132E                     i1l3599:	
 10482                           
 10483                           ;Codigo_TT2_01.c: 109:     if(PORTAbits.RA1) auxiliar =1;
 10484  132E  1283               	bcf	3,5	;RP0=0, select bank0
 10485  132F  1303               	bcf	3,6	;RP1=0, select bank0
 10486  1330  1C85               	btfss	5,1	;volatile
 10487  1331  2B33               	goto	u484_21
 10488  1332  2B34               	goto	u484_20
 10489  1333                     u484_21:	
 10490  1333  2B38               	goto	i1l184
 10491  1334                     u484_20:	
 10492  1334                     i1l3601:	
 10493  1334  3001               	movlw	1
 10494  1335  00E6               	movwf	_auxiliar
 10495  1336  3000               	movlw	0
 10496  1337  00E7               	movwf	_auxiliar+1
 10497  1338                     i1l184:	
 10498  1338  0872               	movf	??_timer2+2,w
 10499  1339  00FF               	movwf	btemp+1
 10500  133A  0871               	movf	??_timer2+1,w
 10501  133B  008A               	movwf	10
 10502  133C  0E70               	swapf	??_timer2^(0+4294967168),w
 10503  133D  0083               	movwf	3
 10504  133E  0EFE               	swapf	btemp,f
 10505  133F  0E7E               	swapf	btemp,w
 10506  1340  0009               	retfie
 10507  1341                     __end_of_timer2:	
 10508  007E                     btemp	set	126	;btemp
 10509  007E                     wtemp0	set	126
 10510                           
 10511                           	psect	intentry
 10512  0004                     __pintentry:	
 10513                           ;incstack = 0
 10514                           ; Regs used in _timer2: [wreg+status,2+status,0+btemp+1]
 10515                           
 10516  0004                     interrupt_function:	
 10517  007E                     saved_w	set	btemp
 10518  0004  00FE               	movwf	btemp
 10519  0005  0E03               	swapf	3,w
 10520  0006  00F0               	movwf	??_timer2
 10521  0007  080A               	movf	10,w
 10522  0008  00F1               	movwf	??_timer2+1
 10523  0009  1283               	bcf	3,5	;RP0=0, select bank0
 10524  000A  1303               	bcf	3,6	;RP1=0, select bank0
 10525  000B  087F               	movf	btemp+1,w
 10526  000C  00F2               	movwf	??_timer2+2
 10527  000D  160A  118A  2AB9   	ljmp	_timer2


Data Sizes:
    Strings     145
    Constant    0
    Data        0
    BSS         42
    Persistent  0
    Stack       0

Auto Spaces:
    Space          Size  Autos    Used
    COMMON           14      9      11
    BANK0            80     70      78
    BANK1            80     22      54
    BANK3            96      0       0
    BANK2            96      0       0

Pointer List with Targets:

    utoa@buf	PTR unsigned char  size(1) Largest target is 20
		 -> dato_c(BANK1[20]), 

    sp__utoa	PTR unsigned char  size(1) Largest target is 20
		 -> dato_c(BANK1[20]), 

    itoa@buf	PTR unsigned char  size(1) Largest target is 20
		 -> dato_c(BANK1[20]), 

    itoa@cp	PTR unsigned char  size(1) Largest target is 20
		 -> dato_c(BANK1[20]), 

    sp__itoa	PTR unsigned char  size(1) Largest target is 20
		 -> dato_c(BANK1[20]), 

    Lcd_Write_String@a	PTR unsigned char  size(2) Largest target is 20
		 -> STR_14(CODE[19]), STR_13(CODE[7]), STR_12(CODE[11]), STR_11(CODE[11]), 
		 -> STR_10(CODE[8]), STR_9(CODE[12]), STR_8(CODE[14]), STR_7(CODE[9]), 
		 -> STR_6(CODE[2]), STR_5(CODE[2]), dato_c(BANK1[20]), STR_4(CODE[11]), 
		 -> STR_3(CODE[12]), STR_2(CODE[10]), STR_1(CODE[19]), 


Critical Paths under _main in COMMON

    _main->_Lcd_Init
    _main->_Pesar
    _main->___fltol
    ___flsub->___fladd
    _Medir->___fltol
    ___fldiv->___xxtofl
    _MostrarCreditos->___fltol
    _MostrarCreditos->___wmul
    _utoa->___lwmod
    ___fltol->___xxtofl
    ___flmul->__Umul8_16
    _Lcd_Init->_Lcd_Cmd
    _CreditosInsuf->_Lcd_Set_Cursor
    _Lcd_Write_String->_Lcd_Write_Char
    _Lcd_Write_Char->_Lcd_Port
    _Lcd_Set_Cursor->_Lcd_Cmd
    _Lcd_Clear->_Lcd_Cmd
    _Lcd_Cmd->_Lcd_Port

Critical Paths under _timer2 in COMMON

    None.

Critical Paths under _main in BANK0

    _main->_MotorPasos_sensor
    ___flsub->___fladd
    _MotorPasos_sensor->_Medir
    _Medir->___fltol
    ___fldiv->___xxtofl
    _MostrarCreditos->___fltol
    _itoa->_utoa
    _utoa->___lwdiv
    ___fltol->___fldiv
    ___flmul->__Umul8_16
    _CreditosInsuf->_Lcd_Write_String

Critical Paths under _timer2 in BANK0

    None.

Critical Paths under _main in BANK1

    None.

Critical Paths under _timer2 in BANK1

    None.

Critical Paths under _main in BANK3

    None.

Critical Paths under _timer2 in BANK3

    None.

Critical Paths under _main in BANK2

    None.

Critical Paths under _timer2 in BANK2

    None.

Call Graph Tables:

 ---------------------------------------------------------------------------------
 (Depth) Function   	        Calls       Base Space   Used Autos Params    Refs
 ---------------------------------------------------------------------------------
 (0) _main                                                24    24      0   44425
                                              0 BANK1     22    22      0
               _ConfiguracionInicial
                      _CreditosInsuf
                          _Desactiva
                          _Lcd_Clear
                           _Lcd_Init
                     _Lcd_Set_Cursor
                   _Lcd_Write_String
                              _Menu1
                    _MostrarCreditos
                         _MotorPasos
                  _MotorPasos_sensor
                              _Pesar
                            ___fladd
                             ___fleq
                             ___flge
                            ___flsub
                            ___fltol
 ---------------------------------------------------------------------------------
 (1) ___flsub                                              8     0      8    3907
                                             16 BANK0      8     0      8
                            ___fladd
 ---------------------------------------------------------------------------------
 (2) ___fladd                                             20    12      8    3482
                                              3 COMMON     4     4      0
                                              0 BANK0     16     8      8
 ---------------------------------------------------------------------------------
 (1) ___flge                                              12     4      8     626
                                              3 COMMON     4     4      0
                                              0 BANK0      8     0      8
 ---------------------------------------------------------------------------------
 (1) ___fleq                                              12     4      8     310
                                              3 COMMON     4     4      0
                                              0 BANK0      8     0      8
 ---------------------------------------------------------------------------------
 (1) _Pesar                                               10     8      2      69
                                              3 COMMON     6     4      2
 ---------------------------------------------------------------------------------
 (1) _MotorPasos_sensor                                   20    16      4    3467
                                             50 BANK0     20    16      4
                              _Medir
 ---------------------------------------------------------------------------------
 (2) _Medir                                               10     8      2    2697
                                             45 BANK0      5     3      2
                            ___fldiv
                            ___fltol
                           ___xxtofl
 ---------------------------------------------------------------------------------
 (3) ___xxtofl                                            14    10      4     566
                                              3 COMMON     4     0      4
                                              0 BANK0     10    10      0
 ---------------------------------------------------------------------------------
 (3) ___fldiv                                             26    18      8    1273
                                             10 BANK0     26    18      8
                           ___xxtofl (ARG)
 ---------------------------------------------------------------------------------
 (1) _MotorPasos                                          20     8     12    3874
                                              3 COMMON     2     2      0
                                              0 BANK0     18     6     12
 ---------------------------------------------------------------------------------
 (1) _Menu1                                                3     3      0   11227
                                             45 BANK0      3     3      0
                          _Lcd_Clear
                     _Lcd_Set_Cursor
                   _Lcd_Write_String
                    _MostrarCreditos
 ---------------------------------------------------------------------------------
 (1) _MostrarCreditos                                      0     0      0    7429
                   _Lcd_Write_String
                            ___flmul
                            ___fltol
                             ___wmul
                               _itoa
 ---------------------------------------------------------------------------------
 (2) _itoa                                                 7     3      4    2233
                                             12 BANK0      7     3      4
                               _utoa
 ---------------------------------------------------------------------------------
 (3) _utoa                                                 9     5      4    1568
                                              3 BANK0      9     5      4
                            ___lwdiv
                            ___lwmod
 ---------------------------------------------------------------------------------
 (4) ___lwmod                                              6     2      4     311
                                              3 COMMON     6     2      4
 ---------------------------------------------------------------------------------
 (4) ___lwdiv                                              8     4      4     601
                                              3 COMMON     5     1      4
                                              0 BANK0      3     3      0
 ---------------------------------------------------------------------------------
 (2) ___wmul                                               6     2      4     244
                                              3 COMMON     6     2      4
 ---------------------------------------------------------------------------------
 (1) ___fltol                                             11     7      4     787
                                              7 COMMON     2     2      0
                                             36 BANK0      9     5      4
                            ___fldiv (ARG)
                            ___flmul (ARG)
                           ___xxtofl (ARG)
 ---------------------------------------------------------------------------------
 (2) ___flmul                                             26    18      8    2417
                                              5 BANK0     26    18      8
                          __Umul8_16
 ---------------------------------------------------------------------------------
 (3) __Umul8_16                                            9     7      2     799
                                              3 COMMON     4     2      2
                                              0 BANK0      5     5      0
 ---------------------------------------------------------------------------------
 (1) _Lcd_Init                                             2     2      0     198
                                              7 COMMON     2     2      0
                            _Lcd_Cmd
                           _Lcd_Port
 ---------------------------------------------------------------------------------
 (1) _Desactiva                                            3     1      2     576
                                              3 COMMON     3     1      2
 ---------------------------------------------------------------------------------
 (1) _CreditosInsuf                                        3     3      0    3798
                                              7 BANK0      3     3      0
                          _Lcd_Clear
                     _Lcd_Set_Cursor
                   _Lcd_Write_String
 ---------------------------------------------------------------------------------
 (2) _Lcd_Write_String                                     7     5      2    1748
                                              0 BANK0      7     5      2
                     _Lcd_Write_Char
 ---------------------------------------------------------------------------------
 (3) _Lcd_Write_Char                                       4     4      0     178
                                              4 COMMON     4     4      0
                           _Lcd_Port
 ---------------------------------------------------------------------------------
 (2) _Lcd_Set_Cursor                                       7     6      1    1940
                                              7 COMMON     1     0      1
                                              0 BANK0      6     6      0
                            _Lcd_Cmd
 ---------------------------------------------------------------------------------
 (2) _Lcd_Clear                                            0     0      0     110
                            _Lcd_Cmd
 ---------------------------------------------------------------------------------
 (3) _Lcd_Cmd                                              3     3      0     110
                                              4 COMMON     3     3      0
                           _Lcd_Port
 ---------------------------------------------------------------------------------
 (4) _Lcd_Port                                             1     1      0      88
                                              3 COMMON     1     1      0
 ---------------------------------------------------------------------------------
 (1) _ConfiguracionInicial                                 0     0      0       0
 ---------------------------------------------------------------------------------
 Estimated maximum stack depth 4
 ---------------------------------------------------------------------------------
 (Depth) Function   	        Calls       Base Space   Used Autos Params    Refs
 ---------------------------------------------------------------------------------
 (6) _timer2                                               3     3      0       0
                                              0 COMMON     3     3      0
 ---------------------------------------------------------------------------------
 Estimated maximum stack depth 6
 ---------------------------------------------------------------------------------

 Call Graph Graphs:

 _main (ROOT)
   _ConfiguracionInicial
   _CreditosInsuf
     _Lcd_Clear
       _Lcd_Cmd
         _Lcd_Port
     _Lcd_Set_Cursor
       _Lcd_Cmd
         _Lcd_Port
     _Lcd_Write_String
       _Lcd_Write_Char
         _Lcd_Port
   _Desactiva
   _Lcd_Clear
     _Lcd_Cmd
       _Lcd_Port
   _Lcd_Init
     _Lcd_Cmd
       _Lcd_Port
     _Lcd_Port
   _Lcd_Set_Cursor
     _Lcd_Cmd
       _Lcd_Port
   _Lcd_Write_String
     _Lcd_Write_Char
       _Lcd_Port
   _Menu1
     _Lcd_Clear
       _Lcd_Cmd
         _Lcd_Port
     _Lcd_Set_Cursor
       _Lcd_Cmd
         _Lcd_Port
     _Lcd_Write_String
       _Lcd_Write_Char
         _Lcd_Port
     _MostrarCreditos
       _Lcd_Write_String
         _Lcd_Write_Char
           _Lcd_Port
       ___flmul
         __Umul8_16
       ___fltol
         ___fldiv (ARG)
           ___xxtofl (ARG)
         ___flmul (ARG)
           __Umul8_16
         ___xxtofl (ARG)
       ___wmul
       _itoa
         _utoa
           ___lwdiv
           ___lwmod
   _MostrarCreditos
     _Lcd_Write_String
       _Lcd_Write_Char
         _Lcd_Port
     ___flmul
       __Umul8_16
     ___fltol
       ___fldiv (ARG)
         ___xxtofl (ARG)
       ___flmul (ARG)
         __Umul8_16
       ___xxtofl (ARG)
     ___wmul
     _itoa
       _utoa
         ___lwdiv
         ___lwmod
   _MotorPasos
   _MotorPasos_sensor
     _Medir
       ___fldiv
         ___xxtofl (ARG)
       ___fltol
         ___fldiv (ARG)
           ___xxtofl (ARG)
         ___flmul (ARG)
           __Umul8_16
         ___xxtofl (ARG)
       ___xxtofl
   _Pesar
   ___fladd
   ___fleq
   ___flge
   ___flsub
     ___fladd
   ___fltol
     ___fldiv (ARG)
       ___xxtofl (ARG)
     ___flmul (ARG)
       __Umul8_16
     ___xxtofl (ARG)

 _timer2 (ROOT)

 Address spaces:
Name               Size   Autos  Total    Cost      Usage
BITCOMMON            E      0       0       0        0.0%
EEDATA             100      0       0       0        0.0%
NULL                 0      0       0       0        0.0%
CODE                 0      0       0       0        0.0%
COMMON               E      9       B       1       78.6%
BITSFR0              0      0       0       1        0.0%
SFR0                 0      0       0       1        0.0%
BITSFR1              0      0       0       2        0.0%
SFR1                 0      0       0       2        0.0%
STACK                0      0       0       2        0.0%
ABS                  0      0      8F       3        0.0%
BITBANK0            50      0       0       4        0.0%
BITSFR3              0      0       0       4        0.0%
SFR3                 0      0       0       4        0.0%
BANK0               50     46      4E       5       97.5%
BITSFR2              0      0       0       5        0.0%
SFR2                 0      0       0       5        0.0%
BITBANK1            50      0       0       6        0.0%
BANK1               50     16      36       7       67.5%
BITBANK3            60      0       0       8        0.0%
BANK3               60      0       0       9        0.0%
BITBANK2            60      0       0      10        0.0%
BANK2               60      0       0      11        0.0%
DATA                 0      0      8F      12        0.0%


Microchip Technology PIC Macro Assembler V2.10 build 88905656 
Symbol Table                                                                                   Tue Oct 20 14:58:53 2020

                 ___fldiv@aexp 0043                   ___fldiv@bexp 0042                              pc 0002  
                 ___fldiv@sign 003B                    __CFG_CP$OFF 0000                             fsr 0004  
          ___wmul@multiplicand 0075             main@motorRecepcion 00D2            __Umul8_16@word_mpld 0022  
                          l111 1E0B                            l112 1E0E                            l200 01FC  
                          l113 1E14                            l201 00FA                            l114 1E15  
                          l122 1E01                            l115 1E1B                            l131 110C  
                          l116 1E1C                            l220 03C7                            l117 1E22  
                          l125 10B4                            l221 03BE                            l134 1169  
                          l310 1182                            l302 16C1                            l222 042D  
                          l119 1E23                            l143 1FB9                            l215 0322  
                          l207 0313                            l312 1186                            l304 16F4  
                          l208 020B                            l137 1F39                            l313 11CA  
                          l243 1E68                            l331 17FF                            l307 117D  
                          l316 080C                            l309 1181                            l334 13CE  
                          l326 1E45                            l342 15DA                            l246 0797  
                          l431 1E99                            l319 0831                            l280 16D4  
                          l600 07CA                            l433 1EB1                            l345 15EB  
                          l273 078F                            l601 07E6                            l602 07FB  
                          l194 00EB                            l195 00D9                            l277 07AB  
                          l269 0767                            l605 13ED                            l703 1FFF  
                          l624 12A3                            l608 1459                            l617 12B8  
                          l713 1F73                            l609 1472                            l802 09F2  
                          l730 0AF0                            l627 12B8                            l820 0FFF  
                          l804 0A02                            l724 0A72                            l832 0FF3  
                          l728 0B1B                            l745 0BEC                            l737 0C9E  
                          l826 0F6B                            l770 1E8C                            l755 0C32  
                          l780 088E                            l860 152E                            l749 0C10  
                          l782 0A0E                            l766 0C92                            l758 0C70  
                          l871 14F8                            l767 0C9E                            l872 1504  
                          l864 14DC                            l858 1497                            l891 1EEE  
                          l796 0980                            l893 1F00                            l885 1225  
                          l887 123C                            l879 1ED7                            _GIE 005F  
                          _RC0 0038                            _RC1 0039                            _RC2 003A  
                          _RB5 0035                            _RD2 0042                            _RB6 0036  
                          _RD3 0043                            _RD4 0044                            _RD5 0045  
                          _RD6 0046                            _RD7 0047                            _PR2 0092  
                 __CFG_CPD$OFF 0000                    Medir@medida 0050                            fsr0 0004  
                          indf 0000                   ___flmul@aexp 0037                   ___flmul@bexp 0038  
                 ___flmul@sign 0032                   ___flmul@temp 003D                   ___flmul@prod 0039  
                 __CFG_LVP$OFF 0000                   ___fltol@exp1 0078                           l4001 1268  
                         l4003 1269                           l3301 1E3F                           l4005 1271  
                         l2501 1F62                           l4101 173C                           l2511 1F0C  
                         l4023 1298                           l4015 127F                           l4007 1273  
                         l2503 1F69                           l4111 17CA                           l4103 1776  
                         l4031 147B                           l2521 1F28                           l2513 1F0F  
                         l4025 12A8                           l4009 1277                           l4017 1291  
                         l2505 1F6F                           l4113 17D9                           l4105 1783  
                         l4041 14A8                           l4033 147F                           l4121 116A  
                         l4201 0A8C                           l2451 1E03                           l2523 1F2E  
                         l2515 1F1D                           l3251 110D                           l2531 1EDD  
                         l4027 12AD                           l2611 1EA0                           l4115 17E4  
                         l4107 17B9                           l4051 14D3                           l4043 14AD  
                         l4035 148F                           l4131 1171                           l4123 116A  
                         l4211 0AA0                           l4203 0A90                           l3261 1E46  
                         l2453 1E07                           l2525 1F31                           l2517 1F20  
                         l2509 1F02                           l3253 1113                           l2533 1EE4  
                         l2613 1EA7                           l2605 1E8D                           l4117 17F4  
                         l4109 17BF                           l4061 1506                           l4053 14E3  
                         l4045 14BA                           l4037 149F                           l4029 1476  
                         l4141 118B                           l4133 1172                           l4125 116D  
                         l4301 0C20                           l4221 0AB4                           l4213 0AA4  
                         l4205 0A94                           l3271 1E52                           l3263 1E4A  
                         l2455 1E12                           l2527 1F36                           l2519 1F25  
                         l3255 111C                           l2535 1EE8                           l2615 1EAD  
                         l2607 1E8F                           l2711 08CF                           l2703 08AF  
                         l4063 151C                           l4055 14EE                           l4047 14C1  
                         l4143 11C6                           l4135 1173                           l4127 116E  
                         l3511 0822                           l4303 0C24                           l4231 0AF4  
                         l4223 0AB8                           l4215 0AA8                           l4207 0A98  
                         l4151 0A1C                           l3281 1E5C                           l3273 1E53  
                         l3265 1E4C                           l2457 1E19                           l4081 10D9  
                         l4073 10B8                           l3257 112B                           l2537 1EF7  
                         l2529 1EDB                           l2801 0CAC                           l2609 1E93  
                         l4401 06EE                           l2721 08EE                           l2713 08D7  
                         l2705 08B4                           l4065 1521                           l4057 14F2  
                         l4049 14C5                           l4137 117A                           l4129 1170  
                         l3513 082D                           l3505 0809                           l4321 0C6C  
                         l4313 0C37                           l4305 0C25                           l4241 0B11  
                         l4233 0AFF                           l4217 0AAC                           l4209 0A9C  
                         l4225 0ABC                           l4161 0A33                           l4153 0A20  
                         l3283 1E5D                           l3275 1E57                           l3267 1E4E  
                         l2459 1E20                           l4091 1104                           l4075 10BD  
                         l4083 10E2                           l3259 1131                           l2539 1EFC  
                         l2811 0CC3                           l2803 0CB0                           l2491 1F43  
                         l4411 0709                           l4403 06F4                           l2731 0920  
                         l2723 0900                           l2715 08DF                           l4067 1525  
                         l4059 14FC                           l4139 1187                           l3507 0810  
                         l4331 0C88                           l4323 0C75                           l4315 0C3C  
                         l4307 0C29                           l4251 0B2F                           l4235 0B01  
                         l4243 0B15                           l4227 0ABD                           l4219 0AB0  
                         l4171 0A49                           l4163 0A34                           l4155 0A21  
                         l4147 0A0F                           l3285 1E5E                           l3277 1E58  
                         l3269 1E50                           l2581 1DFE                           l2573 1DE9  
                         l4085 10E8                           l4077 10CE                           l3293 1E24  
                         l2901 0F68                           l2821 0CDC                           l2813 0CC5  
                         l2805 0CB1                           l2493 1F4A                           l4093 16F5  
                         l4341 152F                           l4413 070E                           l4405 06F9  
                         l4421 072E                           l2741 0941                           l2733 0921  
                         l2725 0904                           l2717 08E7                           l2709 08BD  
                         l2661 0843                           l4069 1526                           l4501 1641  
                         l3509 0817                           l4333 0C8C                           l4325 0C7A  
                         l4317 0C4A                           l4309 0C2F                           l4261 0B5B  
                         l4253 0B48                           l4245 0B1F                           l4237 0B07  
                         l4229 0AD4                           l4181 0A5A                           l4173 0A4A  
                         l4157 0A26                           l4165 0A36                           l4149 0A16  
                         l3287 1E62                           l3279 1E5B                           l2575 1DEC  
                         l4087 10F9                           l4079 10D3                           l3295 1E2A  
                         l2911 0F87                           l2831 0CF1                           l2823 0CDD  
                         l2815 0CCD                           l2807 0CB6                           l2495 1F4E  
                         l2487 1F3A                           l4095 1700                           l4351 1560  
                         l4343 1530                           l4431 076D                           l4423 0734  
                         l4415 0714                           l4407 06FE                           l2751 095A  
                         l2743 0943                           l2735 092F                           l2727 0905  
                         l2719 08E9                           l2671 0857                           l2663 0844  
                         l2655 0832                           l4511 165C                           l4503 1647  
                         l4335 0C8E                           l4327 0C82                           l4319 0C4E  
                         l4271 0B86                           l4263 0B5F                           l4255 0B4C  
                         l4247 0B24                           l4239 0B08                           l4191 0A78  
                         l4183 0A5F                           l4175 0A50                           l4167 0A3E  
                         l4159 0A2B                           l3289 1E66                           l2577 1DF2  
                         l4089 10FE                           l3297 1E31                           l2921 0FCD  
                         l2913 0FA0                           l2905 0F70                           l2841 0D0C  
                         l2833 0CF9                           l2825 0CE2                           l2817 0CD2  
                         l2809 0CBB                           l2497 1F52                           l2489 1F40  
                         l4097 1723                           l4361 1593                           l4353 1565  
                         l4345 1536                           l4433 0777                           l4425 0746  
                         l4417 0719                           l4409 0704                           l2761 097D  
                         l2745 094C                           l2753 0960                           l2729 090E  
                         l2737 0933                           l2681 0870                           l2665 0849  
                         l2673 0859                           l2657 0839                           l4521 1677  
                         l4513 1661                           l4505 164C                           l4337 0C99  
                         l4329 0C87                           l4281 0BF4                           l4273 0BC4  
                         l4265 0B60                           l4257 0B50                           l4193 0A7C  
                         l4185 0A67                           l4177 0A54                           l4169 0A43  
                         l4601 0041                           l2579 1DF5                           l4451 134C  
                         l3299 1E38                           l2931 0FEC                           l2923 0FD7  
                         l2907 0F75                           l2915 0FA6                           l2851 0D8E  
                         l2843 0D1C                           l2835 0CFE                           l2827 0CE7  
                         l2819 0CD8                           l2499 1F5C                           l4099 1731  
                         l4371 15CF                           l4355 1571                           l4347 1547  
                         l4363 15A2                           l4435 077E                           l4427 074D  
                         l4419 071E                           l2771 099C                           l2755 0964  
                         l2747 0950                           l2739 0939                           l2691 0884  
                         l2683 0871                           l2675 0861                           l2667 084E  
                         l2659 083F                           l4531 16AD                           l4523 167C  
                         l4515 1667                           l4507 1651                           l4339 0C9D  
                         l4291 0C0F                           l4283 0BF9                           l4275 0BCA  
                         l4267 0B69                           l4259 0B59                           l4195 0A80  
                         l4187 0A68                           l4179 0A55                           l4611 0056  
                         l4603 0045                           l4461 1385                           l4453 1358  
                         l2933 0FF7                           l2925 0FD9                           l2917 0FB3  
                         l2909 0F83                           l2861 0DFC                           l2853 0DAA  
                         l2845 0D29                           l2837 0D03                           l2829 0CEF  
                         l4373 15E0                           l4365 15AF                           l4357 157C  
                         l4349 1552                           l4437 0787                           l4429 0756  
                         l4381 069C                           l2781 09E5                           l2773 09B5  
                         l2765 0985                           l2757 0965                           l2749 0951  
                         l2685 0876                           l2693 0886                           l2677 0866  
                         l2669 0856                           l4533 16BB                           l4517 166C  
                         l4509 1657                           l4525 1681                           l4293 0C14  
                         l4277 0BCF                           l4269 0B6E                           l4197 0A84  
                         l4189 0A6A                           l4701 0328                           l4621 0097  
                         l4613 005F                           l4605 0047                           l4471 13A8  
                         l4463 1389                           l4455 1363                           l4447 1341  
                         l2927 0FE7                           l2919 0FBE                           l2871 0E8C  
                         l2863 0E0C                           l2855 0DC6                           l2847 0D46  
                         l4367 15B4                           l4359 1588                           l4439 07A5  
                         l4391 06CE                           l4383 06A4                           l2791 09FE  
                         l2783 09E9                           l2767 098A                           l2775 09BB  
                         l2759 0969                           l2695 0896                           l2687 087B  
                         l2679 086C                           l4535 16E2                           l4519 1671  
                         l4527 1691                           l4551 07FA                           l4543 07AC  
                         l4295 0C17                           l4287 0C02                           l4279 0BDE  
                         l4199 0A88                           l4711 0377                           l4631 00C9  
                         l4623 009D                           l4615 0068                           l4607 0049  
                         l4473 13B4                           l4465 138C                           l4457 136B  
                         l4449 1347                           l2929 0FEB                           l2881 0F20  
                         l2873 0E9C                           l2865 0E29                           l2857 0DCF  
                         l2849 0D62                           l3921 1FC7                           l4369 15C7  
                         l4393 06D5                           l4385 06B1                           l4377 0693  
                         l2785 09F1                           l2777 09C8                           l2769 0998  
                         l2697 08A2                           l2689 0883                           l4529 16A2  
                         l4481 15F2                           l4545 07C2                           l4561 1409  
                         l4297 0C19                           l4289 0C0B                           l4801 0545  
                         l4721 0391                           l4713 037B                           l4641 00EF  
                         l4633 00CA                           l4625 00AA                           l4705 033E  
                         l4617 006B                           l4609 004D                           l4475 13BF  
                         l4467 1391                           l4459 1376                           l2891 0F45  
                         l2883 0F2E                           l2875 0EC9                           l2867 0E42  
                         l2859 0DDF                           l3931 1FED                           l3923 1FCE  
                         l3915 1FBA                           l4395 06DE                           l4387 06B8  
                         l4379 0699                           l2787 09F8                           l2779 09D6  
                         l2699 08A6                           l4491 1614                           l4483 15F8  
                         l4547 07DE                           l4571 1471                           l4563 140D  
                         l4555 13CF                           l4299 0C1E                           l4811 0599  
                         l4803 0584                           l4715 0389                           l4707 034B  
                         l4651 0188                           l4643 0100                           l4635 00CE  
                         l4627 00B5                           l4619 006C                           l2981 10A8  
                         l4469 139D                           l2885 0F37                           l2893 0F4B  
                         l2877 0EEF                           l2869 0E5F                           l2797 0C9F  
                         l3933 1FEE                           l3925 1FD2                           l3917 1FBE  
                         l3941 11CE                           l4397 06E4                           l4389 06C1  
                         l2789 09FC                           l4493 161B                           l4485 15FC  
                         l4477 15EC                           l4549 07F8                           l4565 1431  
                         l4557 13E5                           l4821 0611                           l4813 05C9  
                         l4805 0589                           l4741 03FB                           l4733 03CD  
                         l4725 039F                           l4717 038D                           l4661 01E1  
                         l4653 018C                           l4645 010B                           l4709 0356  
                         l4637 00DF                           l4629 00C6                           l4581 002A  
                         l2895 0F4F                           l2887 0F3B                           l2879 0F17  
                         l2799 0CA6                           l3935 1FF5                           l3927 1FD6  
                         l3919 1FC4                           l3951 11F3                           l3943 11D2  
                         l4399 06E9                           l4495 1624                           l4487 15FF  
                         l4479 15F2                           l4567 1435                           l4559 1401  
                         l4575 1E69                           l4831 0636                           l4823 0611  
                         l4815 05CD                           l4807 0591                           l4751 0433  
                         l4743 040A                           l4735 03DC                           l4727 03AA  
                         l4719 038F                           l4671 0211                           l4663 01E6  
                         l4655 0195                           l4647 012E                           l4591 0032  
                         l4583 002A                           l2897 0F50                           l2889 0F3C  
                         l3929 1FE7                           l3937 1FFB                           l3961 1229  
                         l3953 11F5                           l3945 11E5                           l4497 1631  
                         l4489 1607                           l4569 146F                           l4577 1E6D  
                         l4841 0686                           l4833 063C                           l4825 061A  
                         l4817 05DC                           l4809 0596                           l4761 0470  
                         l4753 0442                           l4745 0419                           l4737 03DF  
                         l4729 03B8                           l4681 02B9                           l4673 021C  
                         l4657 01D4                           l4649 0157                           l4665 01F6  
                         l4593 0035                           l4585 002E                           l3971 1F74  
                         l2899 0F54                           l3963 1230                           l3955 1208  
                         l3947 11E9                           l4499 1638                           l4835 066B  
                         l4843 0689                           l4819 05E2                           l4827 061E  
                         l4771 04A1                           l4763 047F                           l4755 0451  
                         l4739 03EC                           l4747 041D                           l4683 02BD  
                         l4675 0245                           l4659 01D9                           l4595 0036  
                         l4587 0030                           l3973 1F79                           l3965 1232  
                         l3957 121B                           l3949 11EF                           l3981 1EB5  
                         l4837 0674                           l4829 062B                           l4781 04C7  
                         l4773 04A3                           l4765 048E                           l4757 0454  
                         l4749 042A                           l4685 02C6                           l4677 0276  
                         l4669 0200                           l4597 0037                           l4589 0031  
                         l3975 1F95                           l3967 1238                           l3959 1221  
                         l3983 1EB9                           l4839 0682                           l4783 04D6  
                         l4759 0461                           l4767 0492                           l4775 04A8  
                         l4687 0305                           l4679 027A                           l4599 003C  
                         l3977 1F9D                           l3993 123D                           l3985 1EC0  
                         l4785 04E5                           l4777 04AB                           l4769 049B  
                         l4689 030A                           l3995 124A                           l3987 1EC4  
                         l3979 1EB5                           l4779 04B8                           l4787 04E9  
                         l4795 04F9                           l4699 0317                           l3989 1EC9  
                         l4885 1686                           l4797 04FF                           l4789 04F2  
                         l3999 1253                           l4887 0723                           l4799 0505  
                         STR_1 1023                           STR_2 107D                           STR_3 1044  
                         STR_4 105C                           STR_5 1085                           STR_6 109F  
                         STR_7 1087                           STR_8 1036                           STR_9 1050  
                         u3100 08EE                           u3020 0843                           u3101 08ED  
                         u3021 0842                           u3030 0849                           u3031 0848  
                         u3040 084E                           u3041 084D                           u3210 0964  
                         u3130 0904                           u3050 0870                           u3211 0963  
                         u3131 0903                           u3115 08F0                           u3051 086F  
                         u3300 09FC                           u3220 0969                           u3060 0876  
                         u3301 09FB                           u3221 0968                           u3205 0953  
                         u3125 08F9                           u3061 0875                           u3310 0CB0  
                         u3230 097D                           u3150 0920                           u3070 087B  
                         u3311 0CAF                           u3231 097C                           u3151 091F  
                         u3071 087A                           u2600 1E07                           u3320 0CB6  
                         u3240 0984                           u3160 0939                           u3080 0896  
                         u2601 1E06                           u3401 0D70                           u3321 0CB5  
                         u3241 0983                           u3161 0938                           u3145 0907  
                         u3081 0895                           u2610 1E12                           u3402 0D77  
                         u3330 0CBB                           u3250 098A                           u3170 0941  
                         u3090 08B4                           u2611 1E11                           u3411 0D9C  
                         u3403 0D7E                           u3331 0CBA                           u3251 0989  
                         u3171 0940                           u3155 091C                           u3091 08B3  
                         u2620 1E19                           u3500 0ED5                           u3412 0DA3  
                         u3340 0CDC                           u3260 099C                           u2621 1E18  
                         u3421 0DB8                           u3413 0DAA                           u3341 0CDB  
                         u3261 099B                           u2630 1E20                           u3422 0DBF  
                         u3350 0CE2                           u2710 1F40                           u3270 09AB  
                         u3190 0950                           u2631 1E1F                           u3511 0EE1  
                         u3423 0DC6                           u3351 0CE1                           u2711 1F3F  
                         u3191 094F                           u2800 1EFC                           u3600 0F68  
                         u3520 0EFD                           u3512 0EE8                           u3360 0CE7  
                         u3280 09C8                           u6000 0C2F                           u2801 1EFB  
                         u3601 0F67                           u3513 0EEF                           u3505 0ED0  
                         u3441 0DEE                           u3361 0CE6                           u3281 09C7  
                         u3185 0945                           u6001 0C2E                           u3610 0F6F  
                         u3442 0DF5                           u3370 0CFE                           u5210 1FD6  
                         u2730 1F52                           u3290 09E5                           u6010 0C36  
                         u3611 0F6E                           u3531 0F09                           u3451 0E1B  
                         u3443 0DFC                           u3435 0DC8                           u3371 0CFD  
                         u5211 1FD5                           u2731 1F51                           u3291 09E4  
                         u3275 09A6                           u6011 0C35                           u5300 1FA7  
                         u3620 0F75                           u3532 0F10                           u3452 0E22  
                         u3380 0D03                           u2740 1F5C                           u6100 0C9D  
                         u6020 0C3C                           u3621 0F74                           u3533 0F17  
                         u3525 0EF8                           u3453 0E29                           u3381 0D02  
                         u5205 1FC8                           u2741 1F5B                           u2725 1F44  
                         u3285 09C4                           u6101 0C9C                           u6021 0C3B  
                         u5310 1FB9                           u3630 0F87                           u2910 1EAD  
                         u5230 1FE7                           u6110 1536                           u6030 0C4E  
                         u5311 1FB8                           u3631 0F86                           u3471 0E51  
                         u3391 0D54                           u2911 1EAC                           u5231 1FE6  
                         u6111 1535                           u3295 09E1                           u6031 0C4D  
                         u4360 1E2A                           u3640 0F96                           u3560 0F3B  
                         u3472 0E58                           u3392 0D5B                           u2760 1F6F  
                         u5320 1EB9                           u6120 15CF                           u6200 0714  
                         u6040 0C5D                           u4361 1E29                           u3561 0F3A  
                         u3545 0F19                           u3481 0E7E                           u3473 0E5F  
                         u3465 0E2B                           u3393 0D62                           u2905 1EA1  
                         u5225 1FD7                           u2761 1F6E                           u2745 1F58  
                         u5321 1EB8                           u6121 15CE                           u6201 0713  
                         u4370 1E38                           u3650 0FB3                           u3482 0E85  
                         u5410 12A8                           u5330 124A                           u5250 1FFB  
                         u6130 15E0                           u6210 0734                           u6050 0C6C  
                         u4371 1E37                           u3651 0FB2                           u3555 0F30  
                         u3491 0EAB                           u3483 0E8C                           u5411 12A7  
                         u5331 1249                           u5251 1FFA                           u5235 1FE3  
                         u2755 1F63                           u6131 15DF                           u6211 0733  
                         u6051 0C6B                           _PEIE 005E                           u2780 1EE8  
                         u3660 0FCD                           u3580 0F4F                           u3492 0EB2  
                         u5420 12AD                           u5340 1261                           u5260 11EF  
                         u6140 06A4                           u6300 1631                           u6060 0C75  
                         u2781 1EE7                           u3661 0FCC                           u3645 0F91  
                         u3581 0F4E                           u3493 0EB9                           u5421 12AC  
                         u5405 129A                           u5245 1FEF                           u5261 11EE  
                         u6141 06A3                           u6301 1630                           u6061 0C74  
                         u6045 0C58                           u3670 0FEB                           u3590 0F54  
                         u5350 1277                           u5190 1FC4                           u5270 1221  
                         u6230 074D                           u6150 06B1                           u5510 14F2  
                         u5430 147B                           u6310 1647                           u6070 0C7A  
                         u2775 1F12                           u3671 0FEA                           u3655 0FAF  
                         u3591 0F53                           u3575 0F3E                           u5351 1276  
                         u5191 1FC3                           u5271 1220                           u7007 155A  
                         u6231 074C                           u6151 06B0                           u5511 14F1  
                         u5431 147A                           u6311 1646                           u6071 0C79  
                         u5360 127E                           u2880 1E93                           u5280 1238  
                         u6160 06CE                           u5520 14F8                           u5440 147F  
                         u6320 1657                           u6400 07F8                           u6080 0C87  
                         u3665 0FC9                           u5361 127D                           u5345 125C  
                         u2881 1E92                           u5281 1237                           u7017 159B  
                         u6225 073B                           u6161 06CD                           u5521 14F7  
                         u5505 14E7                           u5441 147E                           u6321 1656  
                         u6305 162D                           u6401 07F7                           u6081 0C86  
                         u5290 1F83                           u5610 1783                           u6250 076D  
                         u6170 06E4                           u5530 14FC                           u5450 149F  
                         u6330 1667                           u4650 0810                           u6410 13E5  
                         u6090 0C8C                           u7107 1F33                           u2795 1EEF  
                         u5611 1782                           u7027 15D5                           u6251 076C  
                         u6171 06E3                           u6155 06AD                           u5531 14FB  
                         u5451 149E                           u6331 1666                           u4651 080F  
                         u6411 13E4                           u6091 0C8B                           u5380 1290  
                         u5620 17D9                           u6260 077E                           u6180 06F4  
                         u5540 1511                           u6340 1677                           u6420 1401  
                         u5700 0A5A                           u6500 00DF                           u7117 1DF9  
                         u5605 10F0                           u5381 128F                           u5621 17D8  
                         u7037 15E6                           u6261 077D                           u6245 075D  
                         u6181 06F3                           u6165 06CA                           u6341 1676  
                         u6405 07F4                           u6421 1400                           u5701 0A59  
                         u6501 00DE                           u5390 1297                           u6270 07A5  
                         u6190 0704                           u5550 1521                           u5470 14C0  
                         u5630 1181                           u6430 140D                           u5710 0A5F  
                         u6510 00EF                           u7047 1117                           u5391 1296  
                         u5375 1280                           u2895 1E9A                           u5615 177F  
                         u6271 07A4                           u6191 0703                           u5551 1520  
                         u5471 14BF                           u5631 1180                           u6431 140C  
                         u5711 0A5E                           u6511 00EE                           u5560 1525  
                         u5640 1186                           u6360 16BB                           u6280 1607  
                         u5800 0B1B                           u5720 0A78                           u6600 03B8  
                         u6520 0100                           u7057 1126                           u5625 17D5  
                         u5561 1524                           u5545 150C                           u5465 14B2  
                         u5641 1185                           u6361 16BA                           u6281 1606  
                         u6441 141C                           u5801 0B1A                           u5721 0A77  
                         u6601 03B7                           u6521 00FF                           u5570 10BD  
                         u5490 14E2                           u6370 16E2                           u6290 1614  
                         u6450 1435                           u6442 141D                           u5810 0B1F  
                         u5730 0A7C                           u5650 0A20                           u6610 03CD  
                         u6530 0157                           u5571 10BC                           u7067 1135  
                         u6275 07A1                           u5491 14E1                           u6371 16E1  
                         u6355 1698                           u6291 1613                           u6451 1434  
                         u6443 1422                           u5811 0B1E                           u5731 0A7B  
                         u5651 0A1F                           u6611 03CC                           u6531 0156  
                         u6380 07C2                           u6444 1423                           u5900 0BB1  
                         u5820 0B24                           u5740 0AD4                           u5660 0A26  
                         u6700 0461                           u6620 03DC                           u6540 0200  
                         u7077 137E                           u5485 14D4                           u6365 16B7  
                         u6381 07C1                           u6461 1444                           u6445 1428  
                         u5901 0BB2                           u5821 0B23                           u5741 0AD3  
                         u5661 0A25                           u6701 0460                           u6621 03DB  
                         u6605 03B4                           u6541 01FF                           u5590 10E8  
                         u6390 07DE                           u6470 146F                           u6462 1445  
                         u6446 1429                           u5910 0BCF                           u5902 0BB7  
                         u5750 0ADF                           u5670 0A2B                           u6710 0470  
                         u6630 03EC                           u6550 0211                           u5591 10E7  
                         u7087 13C7                           u6375 16DE                           u6295 1610  
                         u6391 07DD                           u6471 146E                           u6463 144A  
                         u5911 0BCE                           u5903 0BB8                           u5831 0B3A  
                         u5751 0ADD                           u5671 0A2A                           u6711 046F  
                         u6631 03EB                           u6551 0210                           u6464 144B  
                         u5920 0BF4                           u5840 0B4C                           u5832 0B41  
                         u5760 0AE0                           u5680 0A49                           u6800 04FF  
                         u6720 047F                           u6640 03FB                           u6560 0245  
                         u6480 0097                           u5585 10C5                           u7097 1F22  
                         u6465 1450                           u5921 0BF3                           u5841 0B4B  
                         u5833 0B48                           u5745 0AD0                           u5681 0A48  
                         u6801 04FE                           u6721 047E                           u6705 045D  
                         u6641 03FA                           u6625 03D8                           u6561 0244  
                         u6481 0096                           u6466 1451                           u5930 0BF9  
                         u5850 0B50                           u5770 0AF4                           u5690 0A54  
                         u6810 0505                           u6730 048E                           u6650 040A  
                         u6570 0317                           u6490 00CE                           u6475 146B  
                         u5931 0BF8                           u5851 0B4F                           u5771 0AF3  
                         u5691 0A53                           u6811 0504                           u6731 048D  
                         u6715 046C                           u6651 0409                           u6635 03E8  
                         u6571 0316                           u6491 00CD                           u5860 0B5F  
                         u5780 0B07                           u6740 04A1                           u6660 0419  
                         u6580 0328                           u5861 0B5E                           u5781 0B06  
                         u6741 04A0                           u6725 047B                           u6661 0418  
                         u6645 03F7                           u6581 0327                           u5950 0C0F  
                         u6750 04B8                           u6670 0433                           u6590 039E  
                         u5951 0C0E                           u6751 04B7                           u6735 048A  
                         u6671 0432                           u6655 0406                           u6591 039D  
                         u5960 0C14                           u5880 0B86                           u6760 04C7  
                         u6680 0442                           u5961 0C13                           u5945 0C04  
                         u5881 0B85                           u6761 04C6                           u6681 0441  
                         u6665 0415                           u5970 0C1E                           u6770 04D6  
                         u6690 0451                           u5971 0C1D                           u5891 0B9D  
                         u5883 0B82                           u5875 0B62                           u5795 0B0A  
                         u6771 04D5                           u6755 04B4                           u6691 0450  
                         u6595 039A                           u6907 031D                           u6827 00D4  
                         u5980 0C24                           u5892 0B9E                           u6780 04E5  
                         u5981 0C23                           u5893 0BA3                           u6781 04E4  
                         u6765 04C3                           u6685 043E                           u6917 032E  
                         u6837 00E5                           u5990 0C29                           u5894 0BA4  
                         u6790 04F8                           u5991 0C28                           u5895 0BA9  
                         u6791 04F7                           u6775 04D2                           u6695 044D  
                         u6927 0383                           u6847 00F5                           u5896 0BAA  
                         u6937 05D5                           u6785 04E1                           u6857 0106  
                         u6947 067C                           u6867 01EE                           u6957 16C7  
                         u6877 0206                           u6967 1177                           u6887 0217  
                         u6977 0771                           u6897 0282                           u6987 0782  
                         u6997 078B                   __CFG_WRT$OFF 0000              ?_Lcd_Write_String 0020  
                         _main 002A                           _itoa 1EB2                           _peso 00A8  
                         btemp 007E                           _utoa 11CB                           start 0010  
           ??_Lcd_Write_String 0022                  __CFG_IESO$OFF 0000                ___fldiv@new_exp 003C  
              __end_of_Lcd_Cmd 1E02                   main@aceptado 00D0                  __CFG_MCLRE$ON 0000  
                ___fltol@sign1 0077                __end_of___fladd 0C9F                          ?_main 0070  
              __end_of___fldiv 0A0F                          ?_itoa 002C                          STR_10 1090  
                        STR_11 1072                          STR_12 1067                          STR_13 1098  
                        STR_14 1010                  __CFG_WDTE$OFF 0000                __end_of___flmul 1000  
              __end_of___flsub 1E8D                __end_of___fltol 12B9                          _ANSEL 0188  
                        ?_utoa 0023                          _T1CON 0010                __end_of___lwdiv 2000  
                        i1l180 1300                          i1l184 1338                          i1l177 130B  
              __end_of___lwmod 1F74                          _TMR1H 000F                          _TMR1L 000E  
                        _PORTA 0005                          _PORTB 0006                          _PORTC 0007  
                        _PORTE 0009        __size_of_Lcd_Set_Cursor 0058                          _TRISA 0085  
                        _TRISB 0086                          _TRISC 0087                          _TRISD 0088  
                        _TRISE 0089                          _Menu1 152F                          _Medir 116A  
               __CFG_FCMEN$OFF 0000                          _Pesar 0809                          main@c 00CC  
               __CFG_BOREN$OFF 0000                          pclath 000A                          utoa@c 002A  
                        utoa@v 0028                          status 0003                          wtemp0 007E  
             __end_of_Lcd_Init 116A               __end_of_Lcd_Port 1E24                __initialization 0013  
                 __end_of_main 0693                   __end_of_itoa 1ED8                   __end_of_utoa 123D  
                       ??_main 00C0             __size_of_Desactiva 0022                         ??_itoa 0030  
                       ??_utoa 0027             __size_of_Lcd_Clear 000D   __end_of_ConfiguracionInicial 1E69  
                       ?_Menu1 0070                         ?_Medir 004D                         ?_Pesar 0073  
                       _ADCON0 001F                         _ADCON1 009F                         _ADRESH 001E  
                       _ADRESL 009E                         _ANSELH 0189                         i1l3601 1334  
                       i1l3561 12BA                         i1l3563 12C3                         i1l3571 12D3  
                       i1l3581 12F2                         i1l3573 12DA                         i1l3565 12C9  
                       i1l3591 1313                         i1l3583 12F8                         i1l3575 12E0  
                       i1l3567 12CC                         i1l3559 12B9                         i1l3593 1320  
                       i1l3585 12FB                         i1l3577 12E3                         i1l3569 12D0  
                       i1l3595 1328                         i1l3579 12EC                         i1l3597 132C  
                       i1l3589 1303                         i1l3599 132E                         u480_20 12F2  
                       u480_21 12F1                         u481_20 12F8                         u481_21 12F7  
                       u482_20 1320                         u482_21 131F                         u482_25 131C  
                       u483_20 1328                         u483_21 1327                         u484_20 1334  
                       u476_20 12C3                         u484_21 1333                         u476_21 12C2  
                       u477_20 12C9                         u477_21 12C8                         u478_20 12DA  
                       u478_21 12D9                         u479_20 12E0                         u479_21 12DF  
                    ??_Lcd_Cmd 0074                         _TMR2IF 0061                         _TMR1ON 0080  
      __size_of_Lcd_Write_Char 0039               __end_of___xxtofl 152F                 __CFG_PWRTE$OFF 0000  
                   _MotorPasos 0693                         ___flge 13CF                         ___fleq 07AC  
                    ??___fladd 0028                         ___wmul 1E8D                      ??___fldiv 0032  
                    ??___flmul 002D                      ??___flsub 0077                      ??___fltol 0048  
                       _dato_c 00AC                         _alerta 00A4                         _angulo 00A6  
                main@peso_temp 00CA                      ??___lwdiv 0077                      ??___lwmod 0077  
                       _altura 00AA                         _timer2 12B9             __size_of__Umul8_16 0029  
                       saved_w 007E                Lcd_Set_Cursor@a 0022                Lcd_Set_Cursor@b 0077  
              Lcd_Set_Cursor@y 0024                Lcd_Set_Cursor@z 0023                     ___flge@ff1 0020  
                   ___flge@ff2 0024                   ___xxtofl@arg 0026                   ___xxtofl@exp 0025  
                 ___xxtofl@val 0073                     ___fleq@ff1 0020                     ___fleq@ff2 0024  
      __end_of__initialization 0026              __end_of_Desactiva 1E46              __end_of_Lcd_Clear 10B5  
                   ___fltol@f1 0044          __end_of_CreditosInsuf 13CF                  __end_of_Menu1 15EC  
                __end_of_Medir 11CB                 __pcstackCOMMON 0070                  __end_of_Pesar 0832  
     __size_of_MostrarCreditos 010B                 _Lcd_Set_Cursor 10B5                        ??_Menu1 004D  
                      ??_Medir 004F                        ??_Pesar 0075                      ?_Lcd_Init 0070  
                    ?_Lcd_Port 0070                     __pbssBANK0 0066                     __pbssBANK1 00A0  
            __end_of__Umul8_16 1F01           _ConfiguracionInicial 1E46                     __pmaintext 002A  
                  ?_MotorPasos 0020                        ?___flge 0020                        ?___fleq 0020  
                      ?___wmul 0073                     __pintentry 0004      __size_of_Lcd_Write_String 0046  
       __end_of_Lcd_Set_Cursor 110D                        ?_timer2 0070                      ?___xxtofl 0073  
                   ??_Lcd_Init 0077                     ??_Lcd_Port 0073                    MotorPasos@i 002C  
                  MotorPasos@n 0030                     __stringtab 1000                 _Lcd_Write_Char 1F01  
                      _Lcd_Cmd 1DE8          ?_ConfiguracionInicial 0070                __size_of___flge 00A4  
              __size_of___fleq 0050                        ___fladd 0A0F                        ___fldiv 0832  
                      ___flmul 0C9F                        ___flsub 1E69                        ___fltol 123D  
              __size_of___wmul 0025                        ___lwdiv 1FBA                        ___lwmod 1F3A  
              ?_Lcd_Set_Cursor 0077                        __ptext1 1E69                        __ptext2 0A0F  
                      __ptext3 13CF                        __ptext4 07AC                        __ptext5 0809  
                      __ptext6 15EC                        __ptext7 116A                        __ptext8 1473  
                      __ptext9 0832                __size_of_timer2 0088              ??_MostrarCreditos 0079  
                    _T2CONbits 0012                     ??___xxtofl 0020                 main@motorArroz 00CE  
          __size_of_MotorPasos 0119                        main@pet 00C8                        clrloop0 0802  
       __end_of_Lcd_Write_Char 1F3A           end_of_initialization 0026                 main@motor_temp 00D4  
                      itoa@buf 0032                        itoa@val 002C                      Lcd_Port@a 0073  
                      utoa@buf 002B                        utoa@val 0023              main@motorBarritas 00C3  
                    _PORTAbits 0005                      _PORTBbits 0006                      _PORTCbits 0007  
                    _PORTDbits 0008                  MotorPasos@num 0028                    ___fladd@grs 0076  
                ___xxtofl@sign 0024                    ___fldiv@grs 003E                    ___fldiv@rem 0037  
              ?_Lcd_Write_Char 0070              Lcd_Write_String@a 0020              Lcd_Write_String@i 0025  
                  ___flmul@grs 0033         ??_ConfiguracionInicial 0073                      _Desactiva 1E24  
                    _Lcd_Clear 10A8                 __end_of___flge 1473                 __end_of___fleq 07FC  
               __end_of___wmul 1EB2               _Lcd_Write_String 1F74                 __end_of_timer2 1341  
          start_initialization 0013              __size_of_Lcd_Init 005D              __size_of_Lcd_Port 0022  
     __CFG_FOSC$INTRC_NOCLKOUT 0000                   ??_MotorPasos 0073                     ?_Desactiva 0073  
                   ?_Lcd_Clear 0070                       ??___flge 0073                       ??___fleq 0073  
                     ??___wmul 0077                      __Umul8_16 1ED8                Lcd_Write_Char@a 0077  
              Lcd_Write_Char@y 0076                       ??_timer2 0070                      ___fladd@a 0024  
                    ___fladd@b 0020                      ___fldiv@a 002A                      ___fldiv@b 002E  
                    ___flmul@a 0029                      ___flmul@b 0025                    __pbssCOMMON 0079  
                    ___flsub@a 0030                      ___flsub@b 0034                      ___latbits 0002  
                __pcstackBANK0 0020                  __pcstackBANK1 00C0         __size_of_CreditosInsuf 008E  
            __size_of___xxtofl 00BC             __end_of_MotorPasos 07AC                       ?_Lcd_Cmd 0070  
              _MostrarCreditos 16F5               ___lwdiv@dividend 0075               ??_Lcd_Set_Cursor 0020  
                     ?___fladd 0020                       ?___fldiv 002A                       ?___flmul 0025  
                     ?___flsub 0030                       ?___fltol 0044                     ?__Umul8_16 0073  
                    _alto_bajo 0079                       ?___lwdiv 0073                       ?___lwmod 0073  
                    __pstrings 1000                 __size_of_Menu1 00BD                 __size_of_Medir 0061  
               __size_of_Pesar 0029               ___lwdiv@quotient 0021   MotorPasos_sensor@medida_temp 005E  
               Desactiva@motor 0073              interrupt_function 0004                 ___wmul@product 0077  
                    clear_ram0 0801                       _PIE1bits 008C                       Lcd_Cmd@a 0076  
                     _PIR1bits 000C                    ??_Desactiva 0075                  _CreditosInsuf 1341  
                  ??_Lcd_Clear 0077                     _ADCON0bits 001F                    __stringbase 100F  
            ___wmul@multiplier 0073               ??_Lcd_Write_Char 0074                       _Lcd_Init 110D  
                     _Lcd_Port 1E02                       Pesar@adc 0077        __end_of_MostrarCreditos 1800  
     __end_of_Lcd_Write_String 1FBA               __size_of_Lcd_Cmd 001A                 ?_CreditosInsuf 0070  
            _MotorPasos_sensor 15EC                    ??__Umul8_16 0075               __size_of___fladd 0290  
             __size_of___fldiv 01DD                 _creditos_temp2 006C               __size_of___flmul 0361  
             __size_of___flsub 0024               __size_of___fltol 007C               __size_of___lwdiv 0046  
             __size_of___lwmod 003A             ?_MotorPasos_sensor 0052             __end_of__stringtab 1010  
                     ___xxtofl 1473            ??_MotorPasos_sensor 0056                       _main$445 00C5  
                     _main$446 00C6                       _main$447 00C7                ___lwdiv@divisor 0073  
              ___lwdiv@counter 0020       MotorPasos_sensor@sentido 0058                       __ptext10 0693  
                     __ptext11 152F                       __ptext20 1ED8                       __ptext12 16F5  
                     __ptext21 110D                       __ptext13 1EB2                       __ptext30 1E46  
                     __ptext22 1E24                       __ptext14 11CB                       __ptext31 12B9  
                     __ptext23 1341                       __ptext15 1F3A                       __ptext24 1F74  
                     __ptext16 1FBA                       __ptext25 1F01                       __ptext17 1E8D  
                     __ptext26 10B5                       __ptext18 123D                       __ptext27 10A8  
                     __ptext19 0C9F                       __ptext28 1DE8                       __ptext29 1E02  
     MotorPasos_sensor@motor_p 0052              __CFG_BOR4V$BOR40V 0000                       _creditos 00A0  
                     _auxiliar 0066                  __size_of_main 0669                  __size_of_itoa 0026  
                __size_of_utoa 0072                       _parpadeo 0068      __end_of_MotorPasos_sensor 16F5  
__size_of_ConfiguracionInicial 0023              MotorPasos@retardo 002A              MotorPasos@sentido 0024  
            MotorPasos@motor_p 0020             MotorPasos_sensor@i 005A             MotorPasos_sensor@n 0064  
                     itoa@base 002E                  _creditos_temp 006A             Lcd_Write_Char@temp 0075  
                     intlevel1 0000        MotorPasos_sensor@medida 005C               ?_MostrarCreditos 0070  
             ___lwmod@dividend 0075                ??_CreditosInsuf 0027                      stringcode 100A  
                   _OSCCONbits 008F             Lcd_Set_Cursor@temp 0025                       utoa@base 0025  
       __Umul8_16@multiplicand 0073         MotorPasos_sensor@pasos 0054                ___lwmod@divisor 0073  
              ___lwmod@counter 0078                       stringdir 100A                       stringtab 1000  
              MotorPasos@pasos 0022                  ___fladd@signs 0073          MotorPasos_sensor@paso 0060  
        MotorPasos_sensor@tipo 0062                 MotorPasos@paso 002E                 MotorPasos@tipo 0026  
                 ___fladd@aexp 0074                   ___fladd@bexp 0075           __Umul8_16@multiplier 0024  
   __size_of_MotorPasos_sensor 0109              __Umul8_16@product 0020  
